
Sequencer-micro.elf:     file format elf32-avr

Sections:
Idx Name          Size      VMA       LMA       File off  Algn
  0 .data         00000012  00800100  00000c34  00000cc8  2**0
                  CONTENTS, ALLOC, LOAD, DATA
  1 .text         00000c34  00000000  00000000  00000094  2**1
                  CONTENTS, ALLOC, LOAD, READONLY, CODE
  2 .bss          00000046  00800112  00800112  00000cda  2**0
                  ALLOC
  3 .comment      00000030  00000000  00000000  00000cda  2**0
                  CONTENTS, READONLY
  4 .note.gnu.avr.deviceinfo 0000003c  00000000  00000000  00000d0c  2**2
                  CONTENTS, READONLY
  5 .debug_aranges 000003b0  00000000  00000000  00000d48  2**0
                  CONTENTS, READONLY, DEBUGGING
  6 .debug_info   00005b9e  00000000  00000000  000010f8  2**0
                  CONTENTS, READONLY, DEBUGGING
  7 .debug_abbrev 00001f3c  00000000  00000000  00006c96  2**0
                  CONTENTS, READONLY, DEBUGGING
  8 .debug_line   0000182a  00000000  00000000  00008bd2  2**0
                  CONTENTS, READONLY, DEBUGGING
  9 .debug_frame  000007cc  00000000  00000000  0000a3fc  2**2
                  CONTENTS, READONLY, DEBUGGING
 10 .debug_str    0000115d  00000000  00000000  0000abc8  2**0
                  CONTENTS, READONLY, DEBUGGING
 11 .debug_loc    000010c2  00000000  00000000  0000bd25  2**0
                  CONTENTS, READONLY, DEBUGGING
 12 .debug_ranges 000002e0  00000000  00000000  0000cde7  2**0
                  CONTENTS, READONLY, DEBUGGING

Disassembly of section .text:

00000000 <__vectors>:
   0:	0c 94 36 00 	jmp	0x6c	; 0x6c <__dtors_end>
   4:	0c 94 5e 00 	jmp	0xbc	; 0xbc <__bad_interrupt>
   8:	0c 94 5e 00 	jmp	0xbc	; 0xbc <__bad_interrupt>
   c:	0c 94 5e 00 	jmp	0xbc	; 0xbc <__bad_interrupt>
  10:	0c 94 5e 00 	jmp	0xbc	; 0xbc <__bad_interrupt>
  14:	0c 94 5e 00 	jmp	0xbc	; 0xbc <__bad_interrupt>
  18:	0c 94 5e 00 	jmp	0xbc	; 0xbc <__bad_interrupt>
  1c:	0c 94 5e 00 	jmp	0xbc	; 0xbc <__bad_interrupt>
  20:	0c 94 5e 00 	jmp	0xbc	; 0xbc <__bad_interrupt>
  24:	0c 94 5e 00 	jmp	0xbc	; 0xbc <__bad_interrupt>
  28:	0c 94 5e 00 	jmp	0xbc	; 0xbc <__bad_interrupt>
  2c:	0c 94 c0 00 	jmp	0x180	; 0x180 <__vector_11>
  30:	0c 94 86 00 	jmp	0x10c	; 0x10c <__vector_12>
  34:	0c 94 5e 00 	jmp	0xbc	; 0xbc <__bad_interrupt>
  38:	0c 94 60 00 	jmp	0xc0	; 0xc0 <__vector_14>
  3c:	0c 94 5e 00 	jmp	0xbc	; 0xbc <__bad_interrupt>
  40:	0c 94 5e 00 	jmp	0xbc	; 0xbc <__bad_interrupt>
  44:	0c 94 5e 00 	jmp	0xbc	; 0xbc <__bad_interrupt>
  48:	0c 94 5e 00 	jmp	0xbc	; 0xbc <__bad_interrupt>
  4c:	0c 94 5e 00 	jmp	0xbc	; 0xbc <__bad_interrupt>
  50:	0c 94 5e 00 	jmp	0xbc	; 0xbc <__bad_interrupt>
  54:	0c 94 5e 00 	jmp	0xbc	; 0xbc <__bad_interrupt>
  58:	0c 94 5e 00 	jmp	0xbc	; 0xbc <__bad_interrupt>
  5c:	0c 94 5e 00 	jmp	0xbc	; 0xbc <__bad_interrupt>
  60:	0c 94 5e 00 	jmp	0xbc	; 0xbc <__bad_interrupt>
  64:	0c 94 5e 00 	jmp	0xbc	; 0xbc <__bad_interrupt>

00000068 <__ctors_start>:
  68:	5c 01       	movw	r10, r24

0000006a <__ctors_end>:
  6a:	75 01       	movw	r14, r10

0000006c <__dtors_end>:
  6c:	11 24       	eor	r1, r1
  6e:	1f be       	out	0x3f, r1	; 63
  70:	cf ef       	ldi	r28, 0xFF	; 255
  72:	d8 e0       	ldi	r29, 0x08	; 8
  74:	de bf       	out	0x3e, r29	; 62
  76:	cd bf       	out	0x3d, r28	; 61

00000078 <__do_copy_data>:
  78:	11 e0       	ldi	r17, 0x01	; 1
  7a:	a0 e0       	ldi	r26, 0x00	; 0
  7c:	b1 e0       	ldi	r27, 0x01	; 1
  7e:	e4 e3       	ldi	r30, 0x34	; 52
  80:	fc e0       	ldi	r31, 0x0C	; 12
  82:	02 c0       	rjmp	.+4      	; 0x88 <__do_copy_data+0x10>
  84:	05 90       	lpm	r0, Z+
  86:	0d 92       	st	X+, r0
  88:	a2 31       	cpi	r26, 0x12	; 18
  8a:	b1 07       	cpc	r27, r17
  8c:	d9 f7       	brne	.-10     	; 0x84 <__do_copy_data+0xc>

0000008e <__do_clear_bss>:
  8e:	21 e0       	ldi	r18, 0x01	; 1
  90:	a2 e1       	ldi	r26, 0x12	; 18
  92:	b1 e0       	ldi	r27, 0x01	; 1
  94:	01 c0       	rjmp	.+2      	; 0x98 <.do_clear_bss_start>

00000096 <.do_clear_bss_loop>:
  96:	1d 92       	st	X+, r1

00000098 <.do_clear_bss_start>:
  98:	a8 35       	cpi	r26, 0x58	; 88
  9a:	b2 07       	cpc	r27, r18
  9c:	e1 f7       	brne	.-8      	; 0x96 <.do_clear_bss_loop>

0000009e <__do_global_ctors>:
  9e:	10 e0       	ldi	r17, 0x00	; 0
  a0:	c5 e3       	ldi	r28, 0x35	; 53
  a2:	d0 e0       	ldi	r29, 0x00	; 0
  a4:	04 c0       	rjmp	.+8      	; 0xae <__do_global_ctors+0x10>
  a6:	21 97       	sbiw	r28, 0x01	; 1
  a8:	fe 01       	movw	r30, r28
  aa:	0e 94 da 04 	call	0x9b4	; 0x9b4 <__tablejump2__>
  ae:	c4 33       	cpi	r28, 0x34	; 52
  b0:	d1 07       	cpc	r29, r17
  b2:	c9 f7       	brne	.-14     	; 0xa6 <__do_global_ctors+0x8>
  b4:	0e 94 22 01 	call	0x244	; 0x244 <main>
  b8:	0c 94 0d 06 	jmp	0xc1a	; 0xc1a <__do_global_dtors>

000000bc <__bad_interrupt>:
  bc:	0c 94 00 00 	jmp	0	; 0x0 <__vectors>

000000c0 <__vector_14>:

void disableShifting( void )
{
	//TIMSK2 is the TC2 Interrupt Mask Register
	//We will disable interrupt on compare match with OCR2A
	TIMSK2 &= ~(1 << OCIE2A);
  c0:	1f 92       	push	r1
  c2:	0f 92       	push	r0
  c4:	0f b6       	in	r0, 0x3f	; 63
  c6:	0f 92       	push	r0
  c8:	11 24       	eor	r1, r1
  ca:	2f 93       	push	r18
  cc:	3f 93       	push	r19
  ce:	4f 93       	push	r20
  d0:	5f 93       	push	r21
  d2:	6f 93       	push	r22
  d4:	7f 93       	push	r23
  d6:	8f 93       	push	r24
  d8:	9f 93       	push	r25
  da:	af 93       	push	r26
  dc:	bf 93       	push	r27
  de:	ef 93       	push	r30
  e0:	ff 93       	push	r31
  e2:	8b e2       	ldi	r24, 0x2B	; 43
  e4:	91 e0       	ldi	r25, 0x01	; 1
  e6:	0e 94 82 04 	call	0x904	; 0x904 <_ZN5Timer14incrementTimerEv>
  ea:	ff 91       	pop	r31
  ec:	ef 91       	pop	r30
  ee:	bf 91       	pop	r27
  f0:	af 91       	pop	r26
  f2:	9f 91       	pop	r25
  f4:	8f 91       	pop	r24
  f6:	7f 91       	pop	r23
  f8:	6f 91       	pop	r22
  fa:	5f 91       	pop	r21
  fc:	4f 91       	pop	r20
  fe:	3f 91       	pop	r19
 100:	2f 91       	pop	r18
 102:	0f 90       	pop	r0
 104:	0f be       	out	0x3f, r0	; 63
 106:	0f 90       	pop	r0
 108:	1f 90       	pop	r1
 10a:	18 95       	reti

0000010c <__vector_12>:
 10c:	78 94       	sei
 10e:	1f 92       	push	r1
 110:	0f 92       	push	r0
 112:	0f b6       	in	r0, 0x3f	; 63
 114:	0f 92       	push	r0
 116:	11 24       	eor	r1, r1
 118:	0f 90       	pop	r0
 11a:	0f be       	out	0x3f, r0	; 63
 11c:	0f 90       	pop	r0
 11e:	1f 90       	pop	r1
 120:	18 95       	reti

00000122 <_Z20setUpTimerInterruptsv>:
 122:	ee e6       	ldi	r30, 0x6E	; 110
 124:	f0 e0       	ldi	r31, 0x00	; 0
 126:	80 81       	ld	r24, Z
 128:	82 60       	ori	r24, 0x02	; 2
 12a:	80 83       	st	Z, r24
 12c:	89 e1       	ldi	r24, 0x19	; 25
 12e:	87 bd       	out	0x27, r24	; 39
 130:	92 e0       	ldi	r25, 0x02	; 2
 132:	94 bd       	out	0x24, r25	; 36
 134:	83 e0       	ldi	r24, 0x03	; 3
 136:	85 bd       	out	0x25, r24	; 37
 138:	ef e6       	ldi	r30, 0x6F	; 111
 13a:	f0 e0       	ldi	r31, 0x00	; 0
 13c:	80 81       	ld	r24, Z
 13e:	86 60       	ori	r24, 0x06	; 6
 140:	80 83       	st	Z, r24
 142:	20 e4       	ldi	r18, 0x40	; 64
 144:	36 e0       	ldi	r19, 0x06	; 6
 146:	30 93 89 00 	sts	0x0089, r19	; 0x800089 <__TEXT_REGION_LENGTH__+0x7e0089>
 14a:	20 93 88 00 	sts	0x0088, r18	; 0x800088 <__TEXT_REGION_LENGTH__+0x7e0088>
 14e:	21 e0       	ldi	r18, 0x01	; 1
 150:	30 e0       	ldi	r19, 0x00	; 0
 152:	30 93 8b 00 	sts	0x008B, r19	; 0x80008b <__TEXT_REGION_LENGTH__+0x7e008b>
 156:	20 93 8a 00 	sts	0x008A, r18	; 0x80008a <__TEXT_REGION_LENGTH__+0x7e008a>
 15a:	89 e0       	ldi	r24, 0x09	; 9
 15c:	80 93 81 00 	sts	0x0081, r24	; 0x800081 <__TEXT_REGION_LENGTH__+0x7e0081>
 160:	8f ef       	ldi	r24, 0xFF	; 255
 162:	80 93 b3 00 	sts	0x00B3, r24	; 0x8000b3 <__TEXT_REGION_LENGTH__+0x7e00b3>
 166:	90 93 b0 00 	sts	0x00B0, r25	; 0x8000b0 <__TEXT_REGION_LENGTH__+0x7e00b0>
 16a:	81 e0       	ldi	r24, 0x01	; 1
 16c:	80 93 b1 00 	sts	0x00B1, r24	; 0x8000b1 <__TEXT_REGION_LENGTH__+0x7e00b1>
 170:	78 94       	sei
 172:	08 95       	ret

00000174 <_Z25disableTimerOneInterruptsv>:
}

void disableTimerOneInterrupts( void )
{
	TIMSK1 &= ~((1 << OCIE1A) | (1 << OCIE2B));
 174:	ef e6       	ldi	r30, 0x6F	; 111
 176:	f0 e0       	ldi	r31, 0x00	; 0
 178:	80 81       	ld	r24, Z
 17a:	89 7f       	andi	r24, 0xF9	; 249
 17c:	80 83       	st	Z, r24
 17e:	08 95       	ret

00000180 <__vector_11>:
ISR( TIMER1_COMPB_vect, ISR_NOBLOCK)
{
}

ISR( TIMER1_COMPA_vect, ISR_NOBLOCK )
{
 180:	78 94       	sei
 182:	1f 92       	push	r1
 184:	0f 92       	push	r0
 186:	0f b6       	in	r0, 0x3f	; 63
 188:	0f 92       	push	r0
 18a:	11 24       	eor	r1, r1
 18c:	2f 93       	push	r18
 18e:	3f 93       	push	r19
 190:	4f 93       	push	r20
 192:	5f 93       	push	r21
 194:	6f 93       	push	r22
 196:	7f 93       	push	r23
 198:	8f 93       	push	r24
 19a:	9f 93       	push	r25
 19c:	af 93       	push	r26
 19e:	bf 93       	push	r27
 1a0:	ef 93       	push	r30
 1a2:	ff 93       	push	r31
	disableTimerOneInterrupts();
 1a4:	0e 94 ba 00 	call	0x174	; 0x174 <_Z25disableTimerOneInterruptsv>
}
 1a8:	ff 91       	pop	r31
 1aa:	ef 91       	pop	r30
 1ac:	bf 91       	pop	r27
 1ae:	af 91       	pop	r26
 1b0:	9f 91       	pop	r25
 1b2:	8f 91       	pop	r24
 1b4:	7f 91       	pop	r23
 1b6:	6f 91       	pop	r22
 1b8:	5f 91       	pop	r21
 1ba:	4f 91       	pop	r20
 1bc:	3f 91       	pop	r19
 1be:	2f 91       	pop	r18
 1c0:	0f 90       	pop	r0
 1c2:	0f be       	out	0x3f, r0	; 63
 1c4:	0f 90       	pop	r0
 1c6:	1f 90       	pop	r1
 1c8:	18 95       	reti

000001ca <_Z9latchTaskv>:
	setUpTimerInterrupts();
}

//Task for latching
void latchTask( void ){
	latch.run();
 1ca:	82 e1       	ldi	r24, 0x12	; 18
 1cc:	91 e0       	ldi	r25, 0x01	; 1
 1ce:	0e 94 e6 02 	call	0x5cc	; 0x5cc <_ZN5Latch3runEv>
 1d2:	08 95       	ret

000001d4 <_Z23sevenSegmentDisplayTaskv>:
}
//Task for Seven Segment display
void sevenSegmentDisplayTask( void ){
	sevenSegmentDisplay.run();
 1d4:	83 e3       	ldi	r24, 0x33	; 51
 1d6:	91 e0       	ldi	r25, 0x01	; 1
 1d8:	0e 94 97 03 	call	0x72e	; 0x72e <_ZN8SevenSeg3runEv>
 1dc:	08 95       	ret

000001de <_Z11triggerTaskv>:
}
//Task for triggering
void triggerTask( void ){
	trigger.run();
 1de:	8d e1       	ldi	r24, 0x1D	; 29
 1e0:	91 e0       	ldi	r25, 0x01	; 1
 1e2:	0e 94 5c 04 	call	0x8b8	; 0x8b8 <_ZN7Trigger3runEv>
 1e6:	08 95       	ret

000001e8 <_Z11counterTaskv>:
}
//Task for counting
void counterTask( void ){
	counter.run();
 1e8:	84 e1       	ldi	r24, 0x14	; 20
 1ea:	91 e0       	ldi	r25, 0x01	; 1
 1ec:	0e 94 b6 02 	call	0x56c	; 0x56c <_ZN7Counter3runEv>
 1f0:	08 95       	ret

000001f2 <_Z10blinkyTaskv>:
}
//Task for blinky
void blinkyTask( void ){
	blinky.run();
 1f2:	84 e2       	ldi	r24, 0x24	; 36
 1f4:	91 e0       	ldi	r25, 0x01	; 1
 1f6:	0e 94 84 02 	call	0x508	; 0x508 <_ZN6Blinky3runEv>
 1fa:	08 95       	ret

000001fc <_Z10setupTasksv>:
//initialize latching object. Controls latching output on shift registers
Latch latch;

void setupTasks( void ){
	//Setup objects
	trigger.getTimerRef( &timer );
 1fc:	6b e2       	ldi	r22, 0x2B	; 43
 1fe:	71 e0       	ldi	r23, 0x01	; 1
 200:	8d e1       	ldi	r24, 0x1D	; 29
 202:	91 e0       	ldi	r25, 0x01	; 1
 204:	0e 94 28 04 	call	0x850	; 0x850 <_ZN7Trigger11getTimerRefEP5Timer>

	//Setup SevenSegmentDisplay object
	sevenSegmentDisplay.sevenSegInit( NUM_DISPLAYS, &timer);
 208:	4b e2       	ldi	r20, 0x2B	; 43
 20a:	51 e0       	ldi	r21, 0x01	; 1
 20c:	62 e0       	ldi	r22, 0x02	; 2
 20e:	83 e3       	ldi	r24, 0x33	; 51
 210:	91 e0       	ldi	r25, 0x01	; 1
 212:	0e 94 06 03 	call	0x60c	; 0x60c <_ZN8SevenSeg12sevenSegInitEhP5Timer>
		
	//Setup Counter
	counter.init( &timer, &sevenSegmentDisplay );
 216:	43 e3       	ldi	r20, 0x33	; 51
 218:	51 e0       	ldi	r21, 0x01	; 1
 21a:	6b e2       	ldi	r22, 0x2B	; 43
 21c:	71 e0       	ldi	r23, 0x01	; 1
 21e:	84 e1       	ldi	r24, 0x14	; 20
 220:	91 e0       	ldi	r25, 0x01	; 1
 222:	0e 94 b0 02 	call	0x560	; 0x560 <_ZN7Counter4initEP5TimerP8SevenSeg>
		
	//Setup Latch object with objects that require latching
	latch.getSevenSegRef( &sevenSegmentDisplay );
 226:	63 e3       	ldi	r22, 0x33	; 51
 228:	71 e0       	ldi	r23, 0x01	; 1
 22a:	82 e1       	ldi	r24, 0x12	; 18
 22c:	91 e0       	ldi	r25, 0x01	; 1
 22e:	0e 94 e2 02 	call	0x5c4	; 0x5c4 <_ZN5Latch14getSevenSegRefEP8SevenSeg>
		
	//Setup blinky with timer reference.
	blinky.getTimerRef( &timer );
 232:	6b e2       	ldi	r22, 0x2B	; 43
 234:	71 e0       	ldi	r23, 0x01	; 1
 236:	84 e2       	ldi	r24, 0x24	; 36
 238:	91 e0       	ldi	r25, 0x01	; 1
 23a:	0e 94 80 02 	call	0x500	; 0x500 <_ZN6Blinky11getTimerRefEP5Timer>
		
	//Enables global timer
	setUpTimerInterrupts();
 23e:	0e 94 91 00 	call	0x122	; 0x122 <_Z20setUpTimerInterruptsv>
 242:	08 95       	ret

00000244 <main>:
 * Author : Koltin Kosik-Harvey
 */
#include "Tasks/setupTasks.h"

int main(void)
{	
 244:	cf 93       	push	r28
 246:	df 93       	push	r29
 248:	cd b7       	in	r28, 0x3d	; 61
 24a:	de b7       	in	r29, 0x3e	; 62
 24c:	63 97       	sbiw	r28, 0x13	; 19
 24e:	0f b6       	in	r0, 0x3f	; 63
 250:	f8 94       	cli
 252:	de bf       	out	0x3e, r29	; 62
 254:	0f be       	out	0x3f, r0	; 63
 256:	cd bf       	out	0x3d, r28	; 61
	//Setup Tasks --> See setupTasks.h
	setupTasks();
 258:	0e 94 fe 00 	call	0x1fc	; 0x1fc <_Z10setupTasksv>
	
	//Initialize task manager
	TaskManager taskManager( &timer );
 25c:	6b e2       	ldi	r22, 0x2B	; 43
 25e:	71 e0       	ldi	r23, 0x01	; 1
 260:	ce 01       	movw	r24, r28
 262:	01 96       	adiw	r24, 0x01	; 1
 264:	0e 94 c3 03 	call	0x786	; 0x786 <_ZN11TaskManagerC1EP5Timer>
	
	//Add tasks with priority 0-250. 0 is real time. 251 never runs.
	taskManager.addTask( latchTask , 32);
 268:	40 e2       	ldi	r20, 0x20	; 32
 26a:	65 ee       	ldi	r22, 0xE5	; 229
 26c:	70 e0       	ldi	r23, 0x00	; 0
 26e:	ce 01       	movw	r24, r28
 270:	01 96       	adiw	r24, 0x01	; 1
 272:	0e 94 ca 03 	call	0x794	; 0x794 <_ZN11TaskManager7addTaskEPFvvEh>
	taskManager.addTask( sevenSegmentDisplayTask, 128);
 276:	40 e8       	ldi	r20, 0x80	; 128
 278:	6a ee       	ldi	r22, 0xEA	; 234
 27a:	70 e0       	ldi	r23, 0x00	; 0
 27c:	ce 01       	movw	r24, r28
 27e:	01 96       	adiw	r24, 0x01	; 1
 280:	0e 94 ca 03 	call	0x794	; 0x794 <_ZN11TaskManager7addTaskEPFvvEh>
	taskManager.addTask( triggerTask,  32);
 284:	40 e2       	ldi	r20, 0x20	; 32
 286:	6f ee       	ldi	r22, 0xEF	; 239
 288:	70 e0       	ldi	r23, 0x00	; 0
 28a:	ce 01       	movw	r24, r28
 28c:	01 96       	adiw	r24, 0x01	; 1
 28e:	0e 94 ca 03 	call	0x794	; 0x794 <_ZN11TaskManager7addTaskEPFvvEh>
	taskManager.addTask( counterTask, 128);
 292:	40 e8       	ldi	r20, 0x80	; 128
 294:	64 ef       	ldi	r22, 0xF4	; 244
 296:	70 e0       	ldi	r23, 0x00	; 0
 298:	ce 01       	movw	r24, r28
 29a:	01 96       	adiw	r24, 0x01	; 1
 29c:	0e 94 ca 03 	call	0x794	; 0x794 <_ZN11TaskManager7addTaskEPFvvEh>
	taskManager.addTask( blinkyTask, 128);
 2a0:	40 e8       	ldi	r20, 0x80	; 128
 2a2:	69 ef       	ldi	r22, 0xF9	; 249
 2a4:	70 e0       	ldi	r23, 0x00	; 0
 2a6:	ce 01       	movw	r24, r28
 2a8:	01 96       	adiw	r24, 0x01	; 1
 2aa:	0e 94 ca 03 	call	0x794	; 0x794 <_ZN11TaskManager7addTaskEPFvvEh>
	
    while (1) 
    {
		taskManager.runTasks();
 2ae:	ce 01       	movw	r24, r28
 2b0:	01 96       	adiw	r24, 0x01	; 1
 2b2:	0e 94 ed 03 	call	0x7da	; 0x7da <_ZN11TaskManager8runTasksEv>
 2b6:	fb cf       	rjmp	.-10     	; 0x2ae <main+0x6a>

000002b8 <_GLOBAL__sub_I_sevenSegmentDisplay>:
#include "Trigger.h"
#include "Counter.h"
#include "Latch.h"

//Define a pointer to a seven segment display object.
SevenSeg sevenSegmentDisplay;
 2b8:	83 e3       	ldi	r24, 0x33	; 51
 2ba:	91 e0       	ldi	r25, 0x01	; 1
 2bc:	0e 94 f4 02 	call	0x5e8	; 0x5e8 <_ZN8SevenSegC1Ev>

//Define a pointer to a timer object.
Timer timer;
 2c0:	8b e2       	ldi	r24, 0x2B	; 43
 2c2:	91 e0       	ldi	r25, 0x01	; 1
 2c4:	0e 94 78 04 	call	0x8f0	; 0x8f0 <_ZN5TimerC1Ev>

//Initialize the blinky object
//Blinks an LED on an off.
Blinky blinky;
 2c8:	84 e2       	ldi	r24, 0x24	; 36
 2ca:	91 e0       	ldi	r25, 0x01	; 1
 2cc:	0e 94 76 02 	call	0x4ec	; 0x4ec <_ZN6BlinkyC1Ev>

//Initialize the trigger object
Trigger trigger;
 2d0:	8d e1       	ldi	r24, 0x1D	; 29
 2d2:	91 e0       	ldi	r25, 0x01	; 1
 2d4:	0e 94 21 04 	call	0x842	; 0x842 <_ZN7TriggerC1Ev>

//Initialize the counter object
//Task counts to 100 then resets.
Counter counter;
 2d8:	84 e1       	ldi	r24, 0x14	; 20
 2da:	91 e0       	ldi	r25, 0x01	; 1
 2dc:	0e 94 a9 02 	call	0x552	; 0x552 <_ZN7CounterC1Ev>

//initialize latching object. Controls latching output on shift registers
Latch latch;
 2e0:	82 e1       	ldi	r24, 0x12	; 18
 2e2:	91 e0       	ldi	r25, 0x01	; 1
 2e4:	0e 94 e1 02 	call	0x5c2	; 0x5c2 <_ZN5LatchC1Ev>
 2e8:	08 95       	ret

000002ea <_GLOBAL__sub_D_sevenSegmentDisplay>:
 2ea:	82 e1       	ldi	r24, 0x12	; 18
 2ec:	91 e0       	ldi	r25, 0x01	; 1
 2ee:	0e 94 f3 02 	call	0x5e6	; 0x5e6 <_ZN5LatchD1Ev>
//Initialize the trigger object
Trigger trigger;

//Initialize the counter object
//Task counts to 100 then resets.
Counter counter;
 2f2:	84 e1       	ldi	r24, 0x14	; 20
 2f4:	91 e0       	ldi	r25, 0x01	; 1
 2f6:	0e 94 e0 02 	call	0x5c0	; 0x5c0 <_ZN7CounterD1Ev>
//Initialize the blinky object
//Blinks an LED on an off.
Blinky blinky;

//Initialize the trigger object
Trigger trigger;
 2fa:	8d e1       	ldi	r24, 0x1D	; 29
 2fc:	91 e0       	ldi	r25, 0x01	; 1
 2fe:	0e 94 77 04 	call	0x8ee	; 0x8ee <_ZN7TriggerD1Ev>
//Define a pointer to a timer object.
Timer timer;

//Initialize the blinky object
//Blinks an LED on an off.
Blinky blinky;
 302:	84 e2       	ldi	r24, 0x24	; 36
 304:	91 e0       	ldi	r25, 0x01	; 1
 306:	0e 94 a8 02 	call	0x550	; 0x550 <_ZN6BlinkyD1Ev>

//Define a pointer to a seven segment display object.
SevenSeg sevenSegmentDisplay;

//Define a pointer to a timer object.
Timer timer;
 30a:	8b e2       	ldi	r24, 0x2B	; 43
 30c:	91 e0       	ldi	r25, 0x01	; 1
 30e:	0e 94 b1 04 	call	0x962	; 0x962 <_ZN5TimerD1Ev>
#include "Trigger.h"
#include "Counter.h"
#include "Latch.h"

//Define a pointer to a seven segment display object.
SevenSeg sevenSegmentDisplay;
 312:	83 e3       	ldi	r24, 0x33	; 51
 314:	91 e0       	ldi	r25, 0x01	; 1
 316:	0e 94 c0 03 	call	0x780	; 0x780 <_ZN8SevenSegD1Ev>
 31a:	08 95       	ret

0000031c <_Znwj>:

 #include "memory.h"

 void * operator new(size_t size)
 {
	 return malloc(size);
 31c:	0e 94 e0 04 	call	0x9c0	; 0x9c0 <malloc>
 }
 320:	08 95       	ret

00000322 <_ZN3Pin17setDirectionInputEv>:
//ANDs the pinNumber mask with the input pin register
//ie 00010000 & 11110000 = 00010000
uint8_t Pin::read( void )
{
	return ( pinNumber & *pin_register );
}
 322:	dc 01       	movw	r26, r24
 324:	ed 91       	ld	r30, X+
 326:	fc 91       	ld	r31, X
 328:	11 97       	sbiw	r26, 0x01	; 1
 32a:	16 96       	adiw	r26, 0x06	; 6
 32c:	8c 91       	ld	r24, X
 32e:	80 95       	com	r24
 330:	90 81       	ld	r25, Z
 332:	89 23       	and	r24, r25
 334:	80 83       	st	Z, r24
 336:	08 95       	ret

00000338 <_ZN3Pin7setHighEv>:

//Sets the pin high
void Pin::setHigh( void )
{
	//set the pin high
	*port_register |= (1 << pinNumber);
 338:	dc 01       	movw	r26, r24
 33a:	12 96       	adiw	r26, 0x02	; 2
 33c:	ed 91       	ld	r30, X+
 33e:	fc 91       	ld	r31, X
 340:	13 97       	sbiw	r26, 0x03	; 3
 342:	21 e0       	ldi	r18, 0x01	; 1
 344:	30 e0       	ldi	r19, 0x00	; 0
 346:	a9 01       	movw	r20, r18
 348:	16 96       	adiw	r26, 0x06	; 6
 34a:	0c 90       	ld	r0, X
 34c:	02 c0       	rjmp	.+4      	; 0x352 <_ZN3Pin7setHighEv+0x1a>
 34e:	44 0f       	add	r20, r20
 350:	55 1f       	adc	r21, r21
 352:	0a 94       	dec	r0
 354:	e2 f7       	brpl	.-8      	; 0x34e <_ZN3Pin7setHighEv+0x16>
 356:	ca 01       	movw	r24, r20
 358:	90 81       	ld	r25, Z
 35a:	89 2b       	or	r24, r25
 35c:	80 83       	st	Z, r24
 35e:	08 95       	ret

00000360 <_ZN3Pin6setLowEv>:
}

//Sets the pin low
void Pin::setLow( void )
{
	*port_register &= ~(1 << pinNumber);
 360:	dc 01       	movw	r26, r24
 362:	12 96       	adiw	r26, 0x02	; 2
 364:	ed 91       	ld	r30, X+
 366:	fc 91       	ld	r31, X
 368:	13 97       	sbiw	r26, 0x03	; 3
 36a:	21 e0       	ldi	r18, 0x01	; 1
 36c:	30 e0       	ldi	r19, 0x00	; 0
 36e:	a9 01       	movw	r20, r18
 370:	16 96       	adiw	r26, 0x06	; 6
 372:	0c 90       	ld	r0, X
 374:	02 c0       	rjmp	.+4      	; 0x37a <_ZN3Pin6setLowEv+0x1a>
 376:	44 0f       	add	r20, r20
 378:	55 1f       	adc	r21, r21
 37a:	0a 94       	dec	r0
 37c:	e2 f7       	brpl	.-8      	; 0x376 <_ZN3Pin6setLowEv+0x16>
 37e:	ca 01       	movw	r24, r20
 380:	80 95       	com	r24
 382:	90 81       	ld	r25, Z
 384:	89 23       	and	r24, r25
 386:	80 83       	st	Z, r24
 388:	08 95       	ret

0000038a <_ZN3Pin18setDirectionOutputEv>:
{	
	*data_direction_reg &= ~pinNumber;
}

void Pin::setDirectionOutput( void )
{
 38a:	cf 93       	push	r28
 38c:	df 93       	push	r29
 38e:	ec 01       	movw	r28, r24
	//Set the pin to low
	this->setLow();
 390:	0e 94 b0 01 	call	0x360	; 0x360 <_ZN3Pin6setLowEv>

	//Set data direction to output for the pin
	*data_direction_reg |= pinNumber;
 394:	e8 81       	ld	r30, Y
 396:	f9 81       	ldd	r31, Y+1	; 0x01
 398:	90 81       	ld	r25, Z
 39a:	8e 81       	ldd	r24, Y+6	; 0x06
 39c:	89 2b       	or	r24, r25
 39e:	80 83       	st	Z, r24
}
 3a0:	df 91       	pop	r29
 3a2:	cf 91       	pop	r28
 3a4:	08 95       	ret

000003a6 <_ZN3PinC1EhPVhh>:
*/

#include "Pin.h"

// default constructor
Pin::Pin(uint8_t PIN_NUMBER, volatile uint8_t * PortRegister, uint8_t DIRECTION)
 3a6:	fc 01       	movw	r30, r24
{
	pin_register = (uint8_t *) PortRegister - 2;
 3a8:	ca 01       	movw	r24, r20
 3aa:	02 97       	sbiw	r24, 0x02	; 2
 3ac:	95 83       	std	Z+5, r25	; 0x05
 3ae:	84 83       	std	Z+4, r24	; 0x04
	data_direction_reg = (uint8_t *) PortRegister - 1;
 3b0:	01 96       	adiw	r24, 0x01	; 1
 3b2:	91 83       	std	Z+1, r25	; 0x01
 3b4:	80 83       	st	Z, r24
	port_register = (uint8_t *) PortRegister;
 3b6:	53 83       	std	Z+3, r21	; 0x03
 3b8:	42 83       	std	Z+2, r20	; 0x02
	
	//Stores pin number as a mask. Makes it easier for operations like setting the pin value
	pinNumber = (1 << PIN_NUMBER);
 3ba:	81 e0       	ldi	r24, 0x01	; 1
 3bc:	01 c0       	rjmp	.+2      	; 0x3c0 <_ZN3PinC1EhPVhh+0x1a>
 3be:	88 0f       	add	r24, r24
 3c0:	6a 95       	dec	r22
 3c2:	ea f7       	brpl	.-6      	; 0x3be <_ZN3PinC1EhPVhh+0x18>
 3c4:	86 83       	std	Z+6, r24	; 0x06

	if ( DIRECTION == OUTPUT )
 3c6:	21 30       	cpi	r18, 0x01	; 1
 3c8:	21 f4       	brne	.+8      	; 0x3d2 <_ZN3PinC1EhPVhh+0x2c>
	{
		this->setDirectionOutput();
 3ca:	cf 01       	movw	r24, r30
 3cc:	0e 94 c5 01 	call	0x38a	; 0x38a <_ZN3Pin18setDirectionOutputEv>
 3d0:	08 95       	ret
	} else {
		this->setDirectionInput();
 3d2:	cf 01       	movw	r24, r30
 3d4:	0e 94 91 01 	call	0x322	; 0x322 <_ZN3Pin17setDirectionInputEv>
 3d8:	08 95       	ret

000003da <_ZN13ShiftRegisterC1Ev>:


#include "ShiftRegister.h"

// Constructor
ShiftRegister::ShiftRegister()
 3da:	08 95       	ret

000003dc <_ZN13ShiftRegisterC1EP3PinS1_S1_>:
{
	
}

ShiftRegister::ShiftRegister( Pin * shift, Pin * latch, Pin * serial )
 3dc:	fc 01       	movw	r30, r24
{
	shiftPin = shift;
 3de:	74 83       	std	Z+4, r23	; 0x04
 3e0:	63 83       	std	Z+3, r22	; 0x03
	latchPin = latch;
 3e2:	56 83       	std	Z+6, r21	; 0x06
 3e4:	45 83       	std	Z+5, r20	; 0x05
	serialPin = serial;
 3e6:	30 87       	std	Z+8, r19	; 0x08
 3e8:	27 83       	std	Z+7, r18	; 0x07
 3ea:	08 95       	ret

000003ec <_ZN13ShiftRegister11singleShiftEv>:
}

void ShiftRegister::singleShift( void )
{
 3ec:	cf 93       	push	r28
 3ee:	df 93       	push	r29
 3f0:	ec 01       	movw	r28, r24
	//Shift single bit in.
	shiftPin->setLow();
 3f2:	8b 81       	ldd	r24, Y+3	; 0x03
 3f4:	9c 81       	ldd	r25, Y+4	; 0x04
 3f6:	0e 94 b0 01 	call	0x360	; 0x360 <_ZN3Pin6setLowEv>
	//wait
	timer->wait_1us();
 3fa:	88 81       	ld	r24, Y
 3fc:	99 81       	ldd	r25, Y+1	; 0x01
 3fe:	0e 94 a8 04 	call	0x950	; 0x950 <_ZN5Timer8wait_1usEv>
	//Set shift high
	shiftPin->setHigh();
 402:	8b 81       	ldd	r24, Y+3	; 0x03
 404:	9c 81       	ldd	r25, Y+4	; 0x04
 406:	0e 94 9c 01 	call	0x338	; 0x338 <_ZN3Pin7setHighEv>
	//wait
	timer->wait_1us();
 40a:	88 81       	ld	r24, Y
 40c:	99 81       	ldd	r25, Y+1	; 0x01
 40e:	0e 94 a8 04 	call	0x950	; 0x950 <_ZN5Timer8wait_1usEv>
}
 412:	df 91       	pop	r29
 414:	cf 91       	pop	r28
 416:	08 95       	ret

00000418 <_ZN13ShiftRegister11latchOutputEv>:

void ShiftRegister::latchOutput( void )
{
 418:	cf 93       	push	r28
 41a:	df 93       	push	r29
 41c:	ec 01       	movw	r28, r24
	//Latch output
	latchPin->setLow();
 41e:	8d 81       	ldd	r24, Y+5	; 0x05
 420:	9e 81       	ldd	r25, Y+6	; 0x06
 422:	0e 94 b0 01 	call	0x360	; 0x360 <_ZN3Pin6setLowEv>
	//wait
	timer->wait_1us();
 426:	88 81       	ld	r24, Y
 428:	99 81       	ldd	r25, Y+1	; 0x01
 42a:	0e 94 a8 04 	call	0x950	; 0x950 <_ZN5Timer8wait_1usEv>
	//Set latch high
	latchPin->setHigh();
 42e:	8d 81       	ldd	r24, Y+5	; 0x05
 430:	9e 81       	ldd	r25, Y+6	; 0x06
 432:	0e 94 9c 01 	call	0x338	; 0x338 <_ZN3Pin7setHighEv>
}
 436:	df 91       	pop	r29
 438:	cf 91       	pop	r28
 43a:	08 95       	ret

0000043c <_ZN13ShiftRegister17getTimerReferenceEP5Timer>:

void ShiftRegister::getTimerReference( Timer * ptr )
{
	timer = ptr;
 43c:	fc 01       	movw	r30, r24
 43e:	71 83       	std	Z+1, r23	; 0x01
 440:	60 83       	st	Z, r22
 442:	08 95       	ret

00000444 <_ZN13ShiftRegisterD1Ev>:
} //getTimerReference

// default destructor
ShiftRegister::~ShiftRegister()
 444:	08 95       	ret

00000446 <_ZN18ShiftRegister_SIPOC1Ev>:
*/

#include "ShiftRegister_SIPO.h"

//Constructs object
ShiftRegister_SIPO::ShiftRegister_SIPO() : ShiftRegister()
 446:	cf 93       	push	r28
 448:	df 93       	push	r29
 44a:	ec 01       	movw	r28, r24
 44c:	0e 94 ed 01 	call	0x3da	; 0x3da <_ZN13ShiftRegisterC1Ev>
{
	//start off with output byte 0
	output_byte = 0;
 450:	19 86       	std	Y+9, r1	; 0x09

} //ShiftRegister_SIPO
 452:	df 91       	pop	r29
 454:	cf 91       	pop	r28
 456:	08 95       	ret

00000458 <_ZN18ShiftRegister_SIPOC1EP3PinS1_S1_>:

//Constructs object with pinout
ShiftRegister_SIPO::ShiftRegister_SIPO( Pin * shift, Pin * latch, Pin * serial ) : ShiftRegister( shift, latch, serial )
 458:	cf 93       	push	r28
 45a:	df 93       	push	r29
 45c:	ec 01       	movw	r28, r24
 45e:	0e 94 ee 01 	call	0x3dc	; 0x3dc <_ZN13ShiftRegisterC1EP3PinS1_S1_>
{
	//Start off with output byte 0
	output_byte = 0;
 462:	19 86       	std	Y+9, r1	; 0x09
}
 464:	df 91       	pop	r29
 466:	cf 91       	pop	r28
 468:	08 95       	ret

0000046a <_ZN18ShiftRegister_SIPO9shiftBitsEv>:

//Shifts in a bit into the shift register.
void ShiftRegister_SIPO::shiftBits( void )
{		
 46a:	0f 93       	push	r16
 46c:	1f 93       	push	r17
 46e:	cf 93       	push	r28
 470:	df 93       	push	r29
 472:	ec 01       	movw	r28, r24
	//Starting shifting with shift/serial/latch at 0
	shiftPin->setLow();
 474:	8b 81       	ldd	r24, Y+3	; 0x03
 476:	9c 81       	ldd	r25, Y+4	; 0x04
 478:	0e 94 b0 01 	call	0x360	; 0x360 <_ZN3Pin6setLowEv>
	latchPin->setLow();
 47c:	8d 81       	ldd	r24, Y+5	; 0x05
 47e:	9e 81       	ldd	r25, Y+6	; 0x06
 480:	0e 94 b0 01 	call	0x360	; 0x360 <_ZN3Pin6setLowEv>
	serialPin->setLow();
 484:	8f 81       	ldd	r24, Y+7	; 0x07
 486:	98 85       	ldd	r25, Y+8	; 0x08
 488:	0e 94 b0 01 	call	0x360	; 0x360 <_ZN3Pin6setLowEv>

	//Wait 1us
	timer->wait_1us();
 48c:	88 81       	ld	r24, Y
 48e:	99 81       	ldd	r25, Y+1	; 0x01
 490:	0e 94 a8 04 	call	0x950	; 0x950 <_ZN5Timer8wait_1usEv>
		
	for ( int i=0; i < 8; i++){
 494:	00 e0       	ldi	r16, 0x00	; 0
 496:	10 e0       	ldi	r17, 0x00	; 0
			
		//Load serial pin with bit
			
		//If the bit needs to be set to 1...
		if( output_byte & (1 << i) ){
 498:	29 85       	ldd	r18, Y+9	; 0x09
 49a:	30 e0       	ldi	r19, 0x00	; 0
 49c:	00 2e       	mov	r0, r16
 49e:	02 c0       	rjmp	.+4      	; 0x4a4 <_ZN18ShiftRegister_SIPO9shiftBitsEv+0x3a>
 4a0:	35 95       	asr	r19
 4a2:	27 95       	ror	r18
 4a4:	0a 94       	dec	r0
 4a6:	e2 f7       	brpl	.-8      	; 0x4a0 <_ZN18ShiftRegister_SIPO9shiftBitsEv+0x36>
 4a8:	20 ff       	sbrs	r18, 0
 4aa:	05 c0       	rjmp	.+10     	; 0x4b6 <_ZN18ShiftRegister_SIPO9shiftBitsEv+0x4c>

			serialPin->setHigh();
 4ac:	8f 81       	ldd	r24, Y+7	; 0x07
 4ae:	98 85       	ldd	r25, Y+8	; 0x08
 4b0:	0e 94 9c 01 	call	0x338	; 0x338 <_ZN3Pin7setHighEv>
 4b4:	04 c0       	rjmp	.+8      	; 0x4be <_ZN18ShiftRegister_SIPO9shiftBitsEv+0x54>
				
		//Else set to 0
		} else {
			
			serialPin->setLow();
 4b6:	8f 81       	ldd	r24, Y+7	; 0x07
 4b8:	98 85       	ldd	r25, Y+8	; 0x08
 4ba:	0e 94 b0 01 	call	0x360	; 0x360 <_ZN3Pin6setLowEv>
		}
			
		timer->wait_1us();
 4be:	88 81       	ld	r24, Y
 4c0:	99 81       	ldd	r25, Y+1	; 0x01
 4c2:	0e 94 a8 04 	call	0x950	; 0x950 <_ZN5Timer8wait_1usEv>
			
		this->singleShift();
 4c6:	ce 01       	movw	r24, r28
 4c8:	0e 94 f6 01 	call	0x3ec	; 0x3ec <_ZN13ShiftRegister11singleShiftEv>
	serialPin->setLow();

	//Wait 1us
	timer->wait_1us();
		
	for ( int i=0; i < 8; i++){
 4cc:	0f 5f       	subi	r16, 0xFF	; 255
 4ce:	1f 4f       	sbci	r17, 0xFF	; 255
 4d0:	08 30       	cpi	r16, 0x08	; 8
 4d2:	11 05       	cpc	r17, r1
 4d4:	09 f7       	brne	.-62     	; 0x498 <_ZN18ShiftRegister_SIPO9shiftBitsEv+0x2e>
		timer->wait_1us();
			
		this->singleShift();
	}
	
} //ShiftBits
 4d6:	df 91       	pop	r29
 4d8:	cf 91       	pop	r28
 4da:	1f 91       	pop	r17
 4dc:	0f 91       	pop	r16
 4de:	08 95       	ret

000004e0 <_ZN18ShiftRegister_SIPO8loadByteEh>:

void ShiftRegister_SIPO::loadByte( uint8_t byteToLoad )
{
	output_byte = byteToLoad;
 4e0:	fc 01       	movw	r30, r24
 4e2:	61 87       	std	Z+9, r22	; 0x09
 4e4:	08 95       	ret

000004e6 <_ZN18ShiftRegister_SIPOD1Ev>:
}

// default destructor
ShiftRegister_SIPO::~ShiftRegister_SIPO()
 4e6:	0e 94 22 02 	call	0x444	; 0x444 <_ZN13ShiftRegisterD1Ev>
 4ea:	08 95       	ret

000004ec <_ZN6BlinkyC1Ev>:

//Initialize the pins. 
Blinky::Blinky()
{
	//Set LED on port D data direction to output
	DDRD |= (1 << PORTD0);
 4ec:	50 9a       	sbi	0x0a, 0	; 10
		
	//Used for the "Status LED"
	DDRD |= (1 << PORTD1);
 4ee:	51 9a       	sbi	0x0a, 1	; 10
	
	//Used for Task - "Blinky". Indicates next value of LED
	LEDValueNext = 1;
 4f0:	21 e0       	ldi	r18, 0x01	; 1
 4f2:	fc 01       	movw	r30, r24
 4f4:	20 83       	st	Z, r18
	
	//initialize time stamp to zero
	timeStamp = 0;
 4f6:	13 82       	std	Z+3, r1	; 0x03
 4f8:	14 82       	std	Z+4, r1	; 0x04
 4fa:	15 82       	std	Z+5, r1	; 0x05
 4fc:	16 82       	std	Z+6, r1	; 0x06
 4fe:	08 95       	ret

00000500 <_ZN6Blinky11getTimerRefEP5Timer>:
	
} //Blinky

void Blinky::getTimerRef(Timer * timerPtr)
{
	timer = timerPtr;
 500:	fc 01       	movw	r30, r24
 502:	72 83       	std	Z+2, r23	; 0x02
 504:	61 83       	std	Z+1, r22	; 0x01
 506:	08 95       	ret

00000508 <_ZN6Blinky3runEv>:
}

//Runs the Blinky task. Blinks led on an off. 
void Blinky::run()
{
 508:	cf 93       	push	r28
 50a:	df 93       	push	r29
 50c:	ec 01       	movw	r28, r24
	if ( timer->elapsed_millis( timeStamp ) > LED_UPDATE ) {
 50e:	4b 81       	ldd	r20, Y+3	; 0x03
 510:	5c 81       	ldd	r21, Y+4	; 0x04
 512:	6d 81       	ldd	r22, Y+5	; 0x05
 514:	7e 81       	ldd	r23, Y+6	; 0x06
 516:	89 81       	ldd	r24, Y+1	; 0x01
 518:	9a 81       	ldd	r25, Y+2	; 0x02
 51a:	0e 94 90 04 	call	0x920	; 0x920 <_ZN5Timer14elapsed_millisEm>
 51e:	69 38       	cpi	r22, 0x89	; 137
 520:	73 41       	sbci	r23, 0x13	; 19
 522:	81 05       	cpc	r24, r1
 524:	91 05       	cpc	r25, r1
 526:	88 f0       	brcs	.+34     	; 0x54a <_ZN6Blinky3runEv+0x42>
		
		//Update time stamp
		timeStamp = timer->millis();
 528:	89 81       	ldd	r24, Y+1	; 0x01
 52a:	9a 81       	ldd	r25, Y+2	; 0x02
 52c:	0e 94 a2 04 	call	0x944	; 0x944 <_ZN5Timer6millisEv>
 530:	6b 83       	std	Y+3, r22	; 0x03
 532:	7c 83       	std	Y+4, r23	; 0x04
 534:	8d 83       	std	Y+5, r24	; 0x05
 536:	9e 83       	std	Y+6, r25	; 0x06
		
		if( LEDValueNext == 1 ){
 538:	88 81       	ld	r24, Y
 53a:	81 30       	cpi	r24, 0x01	; 1
 53c:	19 f4       	brne	.+6      	; 0x544 <_ZN6Blinky3runEv+0x3c>
			//Set Test LED to OFF
			PORTD |= (1 << PORTD0);
 53e:	58 9a       	sbi	0x0b, 0	; 11
			LEDValueNext = 0;
 540:	18 82       	st	Y, r1
 542:	03 c0       	rjmp	.+6      	; 0x54a <_ZN6Blinky3runEv+0x42>
			
		} else {
			//Set Test LED to ON
			PORTD &= ~(1 << PORTD0);
 544:	58 98       	cbi	0x0b, 0	; 11
			LEDValueNext = 1;
 546:	81 e0       	ldi	r24, 0x01	; 1
 548:	88 83       	st	Y, r24
		}
	}
}
 54a:	df 91       	pop	r29
 54c:	cf 91       	pop	r28
 54e:	08 95       	ret

00000550 <_ZN6BlinkyD1Ev>:

// default destructor
Blinky::~Blinky()
 550:	08 95       	ret

00000552 <_ZN7CounterC1Ev>:

// default constructor
Counter::Counter()
{
	//initialize counter to zero
	counterValue = 0;
 552:	fc 01       	movw	r30, r24
 554:	10 82       	st	Z, r1
	
	//Initialize timeStamp to zero
	timeStamp = 0;
 556:	15 82       	std	Z+5, r1	; 0x05
 558:	16 82       	std	Z+6, r1	; 0x06
 55a:	17 82       	std	Z+7, r1	; 0x07
 55c:	10 86       	std	Z+8, r1	; 0x08
 55e:	08 95       	ret

00000560 <_ZN7Counter4initEP5TimerP8SevenSeg>:
	
} //counter

void Counter::init( Timer * timerPtr, SevenSeg * sevenSegPtr)
{
	timer = timerPtr;
 560:	fc 01       	movw	r30, r24
 562:	72 83       	std	Z+2, r23	; 0x02
 564:	61 83       	std	Z+1, r22	; 0x01
	
	sevenSeg = sevenSegPtr;
 566:	54 83       	std	Z+4, r21	; 0x04
 568:	43 83       	std	Z+3, r20	; 0x03
 56a:	08 95       	ret

0000056c <_ZN7Counter3runEv>:
}

void Counter::run( void )
{
 56c:	cf 93       	push	r28
 56e:	df 93       	push	r29
 570:	ec 01       	movw	r28, r24
		
	if( timer->elapsed_millis(timeStamp) > COUNTER_UPDATE ){
 572:	4d 81       	ldd	r20, Y+5	; 0x05
 574:	5e 81       	ldd	r21, Y+6	; 0x06
 576:	6f 81       	ldd	r22, Y+7	; 0x07
 578:	78 85       	ldd	r23, Y+8	; 0x08
 57a:	89 81       	ldd	r24, Y+1	; 0x01
 57c:	9a 81       	ldd	r25, Y+2	; 0x02
 57e:	0e 94 90 04 	call	0x920	; 0x920 <_ZN5Timer14elapsed_millisEm>
 582:	65 36       	cpi	r22, 0x65	; 101
 584:	71 05       	cpc	r23, r1
 586:	81 05       	cpc	r24, r1
 588:	91 05       	cpc	r25, r1
 58a:	b8 f0       	brcs	.+46     	; 0x5ba <_ZN7Counter3runEv+0x4e>
				
		//Update timestamp
		timeStamp = timer->millis();
 58c:	89 81       	ldd	r24, Y+1	; 0x01
 58e:	9a 81       	ldd	r25, Y+2	; 0x02
 590:	0e 94 a2 04 	call	0x944	; 0x944 <_ZN5Timer6millisEv>
 594:	6d 83       	std	Y+5, r22	; 0x05
 596:	7e 83       	std	Y+6, r23	; 0x06
 598:	8f 83       	std	Y+7, r24	; 0x07
 59a:	98 87       	std	Y+8, r25	; 0x08
				
		//increment counter
		counterValue++;
 59c:	88 81       	ld	r24, Y
 59e:	8f 5f       	subi	r24, 0xFF	; 255
				
		//Reset timer at 100.
		if ( counterValue >= 100 ){
 5a0:	84 36       	cpi	r24, 0x64	; 100
 5a2:	10 f4       	brcc	.+4      	; 0x5a8 <_ZN7Counter3runEv+0x3c>
				
		//Update timestamp
		timeStamp = timer->millis();
				
		//increment counter
		counterValue++;
 5a4:	88 83       	st	Y, r24
 5a6:	01 c0       	rjmp	.+2      	; 0x5aa <_ZN7Counter3runEv+0x3e>
				
		//Reset timer at 100.
		if ( counterValue >= 100 ){
			counterValue = 0;
 5a8:	18 82       	st	Y, r1
		}
		
		//Update the content for the sevenSeg to print
		sevenSeg->contentToPrint = counterValue;
 5aa:	eb 81       	ldd	r30, Y+3	; 0x03
 5ac:	fc 81       	ldd	r31, Y+4	; 0x04
 5ae:	88 81       	ld	r24, Y
 5b0:	84 87       	std	Z+12, r24	; 0x0c
		
		//flag that the counter has been updated, and that seven seg has content to print
		sevenSeg->newContentToPrint = true;	
 5b2:	eb 81       	ldd	r30, Y+3	; 0x03
 5b4:	fc 81       	ldd	r31, Y+4	; 0x04
 5b6:	81 e0       	ldi	r24, 0x01	; 1
 5b8:	83 87       	std	Z+11, r24	; 0x0b
	}
		
}
 5ba:	df 91       	pop	r29
 5bc:	cf 91       	pop	r28
 5be:	08 95       	ret

000005c0 <_ZN7CounterD1Ev>:

// default destructor
Counter::~Counter()
 5c0:	08 95       	ret

000005c2 <_ZN5LatchC1Ev>:


#include "Latch.h"

// default constructor
Latch::Latch()
 5c2:	08 95       	ret

000005c4 <_ZN5Latch14getSevenSegRefEP8SevenSeg>:
{
} //Latch

void Latch::getSevenSegRef( SevenSeg * sevenSegPtr )
{
	sevenSegmentDisplay = sevenSegPtr;
 5c4:	fc 01       	movw	r30, r24
 5c6:	71 83       	std	Z+1, r23	; 0x01
 5c8:	60 83       	st	Z, r22
 5ca:	08 95       	ret

000005cc <_ZN5Latch3runEv>:
}

void Latch::run( void )
{
	if( sevenSegmentDisplay->shiftComplete == true ){
 5cc:	dc 01       	movw	r26, r24
 5ce:	ed 91       	ld	r30, X+
 5d0:	fc 91       	ld	r31, X
 5d2:	11 97       	sbiw	r26, 0x01	; 1
 5d4:	22 85       	ldd	r18, Z+10	; 0x0a
 5d6:	21 30       	cpi	r18, 0x01	; 1
 5d8:	29 f4       	brne	.+10     	; 0x5e4 <_ZN5Latch3runEv+0x18>
		
		//Reset the shift complete flag
		sevenSegmentDisplay->shiftComplete = false;
 5da:	12 86       	std	Z+10, r1	; 0x0a
		
		//Latch shift registers. Output should show on seven segment display
		sevenSegmentDisplay->latchOutput();
 5dc:	8d 91       	ld	r24, X+
 5de:	9c 91       	ld	r25, X
 5e0:	0e 94 0c 02 	call	0x418	; 0x418 <_ZN13ShiftRegister11latchOutputEv>
 5e4:	08 95       	ret

000005e6 <_ZN5LatchD1Ev>:
	}
}

// default destructor
Latch::~Latch()
 5e6:	08 95       	ret

000005e8 <_ZN8SevenSegC1Ev>:
	//Shift in the Byte
	this->shiftBits();
	
	//latch output
	this->latchOutput();
}
 5e8:	cf 93       	push	r28
 5ea:	df 93       	push	r29
 5ec:	ec 01       	movw	r28, r24
 5ee:	0e 94 23 02 	call	0x446	; 0x446 <_ZN18ShiftRegister_SIPOC1Ev>
 5f2:	8b e0       	ldi	r24, 0x0B	; 11
 5f4:	e6 e0       	ldi	r30, 0x06	; 6
 5f6:	f1 e0       	ldi	r31, 0x01	; 1
 5f8:	de 01       	movw	r26, r28
 5fa:	54 96       	adiw	r26, 0x14	; 20
 5fc:	01 90       	ld	r0, Z+
 5fe:	0d 92       	st	X+, r0
 600:	8a 95       	dec	r24
 602:	e1 f7       	brne	.-8      	; 0x5fc <_ZN8SevenSegC1Ev+0x14>
 604:	1c 86       	std	Y+12, r1	; 0x0c
 606:	df 91       	pop	r29
 608:	cf 91       	pop	r28
 60a:	08 95       	ret

0000060c <_ZN8SevenSeg12sevenSegInitEhP5Timer>:
 60c:	ef 92       	push	r14
 60e:	ff 92       	push	r15
 610:	0f 93       	push	r16
 612:	1f 93       	push	r17
 614:	cf 93       	push	r28
 616:	df 93       	push	r29
 618:	cd b7       	in	r28, 0x3d	; 61
 61a:	de b7       	in	r29, 0x3e	; 62
 61c:	2a 97       	sbiw	r28, 0x0a	; 10
 61e:	0f b6       	in	r0, 0x3f	; 63
 620:	f8 94       	cli
 622:	de bf       	out	0x3e, r29	; 62
 624:	0f be       	out	0x3f, r0	; 63
 626:	cd bf       	out	0x3d, r28	; 61
 628:	8c 01       	movw	r16, r24
 62a:	f6 2e       	mov	r15, r22
 62c:	ba 01       	movw	r22, r20
 62e:	0e 94 1e 02 	call	0x43c	; 0x43c <_ZN13ShiftRegister17getTimerReferenceEP5Timer>
 632:	f8 01       	movw	r30, r16
 634:	f3 8a       	std	Z+19, r15	; 0x13
 636:	12 86       	std	Z+10, r1	; 0x0a
 638:	13 86       	std	Z+11, r1	; 0x0b
 63a:	87 e0       	ldi	r24, 0x07	; 7
 63c:	90 e0       	ldi	r25, 0x00	; 0
 63e:	0e 94 8e 01 	call	0x31c	; 0x31c <_Znwj>
 642:	7c 01       	movw	r14, r24
 644:	21 e0       	ldi	r18, 0x01	; 1
 646:	48 e2       	ldi	r20, 0x28	; 40
 648:	50 e0       	ldi	r21, 0x00	; 0
 64a:	62 e0       	ldi	r22, 0x02	; 2
 64c:	0e 94 d3 01 	call	0x3a6	; 0x3a6 <_ZN3PinC1EhPVhh>
 650:	f8 01       	movw	r30, r16
 652:	f6 86       	std	Z+14, r15	; 0x0e
 654:	e5 86       	std	Z+13, r14	; 0x0d
 656:	87 e0       	ldi	r24, 0x07	; 7
 658:	90 e0       	ldi	r25, 0x00	; 0
 65a:	0e 94 8e 01 	call	0x31c	; 0x31c <_Znwj>
 65e:	7c 01       	movw	r14, r24
 660:	21 e0       	ldi	r18, 0x01	; 1
 662:	48 e2       	ldi	r20, 0x28	; 40
 664:	50 e0       	ldi	r21, 0x00	; 0
 666:	61 e0       	ldi	r22, 0x01	; 1
 668:	0e 94 d3 01 	call	0x3a6	; 0x3a6 <_ZN3PinC1EhPVhh>
 66c:	f8 01       	movw	r30, r16
 66e:	f0 8a       	std	Z+16, r15	; 0x10
 670:	e7 86       	std	Z+15, r14	; 0x0f
 672:	87 e0       	ldi	r24, 0x07	; 7
 674:	90 e0       	ldi	r25, 0x00	; 0
 676:	0e 94 8e 01 	call	0x31c	; 0x31c <_Znwj>
 67a:	7c 01       	movw	r14, r24
 67c:	21 e0       	ldi	r18, 0x01	; 1
 67e:	48 e2       	ldi	r20, 0x28	; 40
 680:	50 e0       	ldi	r21, 0x00	; 0
 682:	60 e0       	ldi	r22, 0x00	; 0
 684:	0e 94 d3 01 	call	0x3a6	; 0x3a6 <_ZN3PinC1EhPVhh>
 688:	f8 01       	movw	r30, r16
 68a:	f2 8a       	std	Z+18, r15	; 0x12
 68c:	e1 8a       	std	Z+17, r14	; 0x11
 68e:	47 85       	ldd	r20, Z+15	; 0x0f
 690:	50 89       	ldd	r21, Z+16	; 0x10
 692:	65 85       	ldd	r22, Z+13	; 0x0d
 694:	76 85       	ldd	r23, Z+14	; 0x0e
 696:	97 01       	movw	r18, r14
 698:	ce 01       	movw	r24, r28
 69a:	01 96       	adiw	r24, 0x01	; 1
 69c:	0e 94 2c 02 	call	0x458	; 0x458 <_ZN18ShiftRegister_SIPOC1EP3PinS1_S1_>
 6a0:	ce 01       	movw	r24, r28
 6a2:	01 96       	adiw	r24, 0x01	; 1
 6a4:	0e 94 73 02 	call	0x4e6	; 0x4e6 <_ZN18ShiftRegister_SIPOD1Ev>
 6a8:	2a 96       	adiw	r28, 0x0a	; 10
 6aa:	0f b6       	in	r0, 0x3f	; 63
 6ac:	f8 94       	cli
 6ae:	de bf       	out	0x3e, r29	; 62
 6b0:	0f be       	out	0x3f, r0	; 63
 6b2:	cd bf       	out	0x3d, r28	; 61
 6b4:	df 91       	pop	r29
 6b6:	cf 91       	pop	r28
 6b8:	1f 91       	pop	r17
 6ba:	0f 91       	pop	r16
 6bc:	ff 90       	pop	r15
 6be:	ef 90       	pop	r14
 6c0:	08 95       	ret

000006c2 <_ZN8SevenSeg12shiftInBytesEPh>:
 6c2:	df 92       	push	r13
 6c4:	ef 92       	push	r14
 6c6:	ff 92       	push	r15
 6c8:	0f 93       	push	r16
 6ca:	1f 93       	push	r17
 6cc:	cf 93       	push	r28
 6ce:	df 93       	push	r29
 6d0:	fc 01       	movw	r30, r24
 6d2:	23 89       	ldd	r18, Z+19	; 0x13
 6d4:	22 23       	and	r18, r18
 6d6:	19 f1       	breq	.+70     	; 0x71e <_ZN8SevenSeg12shiftInBytesEPh+0x5c>
 6d8:	8c 01       	movw	r16, r24
 6da:	c6 2f       	mov	r28, r22
 6dc:	d7 2f       	mov	r29, r23
 6de:	e1 2c       	mov	r14, r1
 6e0:	f1 2c       	mov	r15, r1
 6e2:	0f 2e       	mov	r0, r31
 6e4:	fa e0       	ldi	r31, 0x0A	; 10
 6e6:	df 2e       	mov	r13, r31
 6e8:	f0 2d       	mov	r31, r0
 6ea:	fe 01       	movw	r30, r28
 6ec:	88 81       	ld	r24, Y
 6ee:	8a 30       	cpi	r24, 0x0A	; 10
 6f0:	08 f0       	brcs	.+2      	; 0x6f4 <_ZN8SevenSeg12shiftInBytesEPh+0x32>
 6f2:	d8 82       	st	Y, r13
 6f4:	21 96       	adiw	r28, 0x01	; 1
 6f6:	80 81       	ld	r24, Z
 6f8:	f8 01       	movw	r30, r16
 6fa:	e8 0f       	add	r30, r24
 6fc:	f1 1d       	adc	r31, r1
 6fe:	64 89       	ldd	r22, Z+20	; 0x14
 700:	c8 01       	movw	r24, r16
 702:	0e 94 70 02 	call	0x4e0	; 0x4e0 <_ZN18ShiftRegister_SIPO8loadByteEh>
 706:	c8 01       	movw	r24, r16
 708:	0e 94 35 02 	call	0x46a	; 0x46a <_ZN18ShiftRegister_SIPO9shiftBitsEv>
 70c:	ff ef       	ldi	r31, 0xFF	; 255
 70e:	ef 1a       	sub	r14, r31
 710:	ff 0a       	sbc	r15, r31
 712:	f8 01       	movw	r30, r16
 714:	83 89       	ldd	r24, Z+19	; 0x13
 716:	90 e0       	ldi	r25, 0x00	; 0
 718:	e8 16       	cp	r14, r24
 71a:	f9 06       	cpc	r15, r25
 71c:	34 f3       	brlt	.-52     	; 0x6ea <_ZN8SevenSeg12shiftInBytesEPh+0x28>
 71e:	df 91       	pop	r29
 720:	cf 91       	pop	r28
 722:	1f 91       	pop	r17
 724:	0f 91       	pop	r16
 726:	ff 90       	pop	r15
 728:	ef 90       	pop	r14
 72a:	df 90       	pop	r13
 72c:	08 95       	ret

0000072e <_ZN8SevenSeg3runEv>:
 72e:	cf 93       	push	r28
 730:	df 93       	push	r29
 732:	fc 01       	movw	r30, r24
 734:	23 85       	ldd	r18, Z+11	; 0x0b
 736:	21 30       	cpi	r18, 0x01	; 1
 738:	01 f5       	brne	.+64     	; 0x77a <_ZN8SevenSeg3runEv+0x4c>
 73a:	ec 01       	movw	r28, r24
 73c:	13 86       	std	Z+11, r1	; 0x0b
 73e:	84 85       	ldd	r24, Z+12	; 0x0c
 740:	9d ec       	ldi	r25, 0xCD	; 205
 742:	89 9f       	mul	r24, r25
 744:	91 2d       	mov	r25, r1
 746:	11 24       	eor	r1, r1
 748:	96 95       	lsr	r25
 74a:	96 95       	lsr	r25
 74c:	96 95       	lsr	r25
 74e:	99 0f       	add	r25, r25
 750:	29 2f       	mov	r18, r25
 752:	22 0f       	add	r18, r18
 754:	22 0f       	add	r18, r18
 756:	92 0f       	add	r25, r18
 758:	f8 2f       	mov	r31, r24
 75a:	f9 1b       	sub	r31, r25
 75c:	ff 8f       	std	Y+31, r31	; 0x1f
 75e:	90 e0       	ldi	r25, 0x00	; 0
 760:	6a e0       	ldi	r22, 0x0A	; 10
 762:	70 e0       	ldi	r23, 0x00	; 0
 764:	0e 94 b2 04 	call	0x964	; 0x964 <__divmodhi4>
 768:	68 a3       	std	Y+32, r22	; 0x20
 76a:	be 01       	movw	r22, r28
 76c:	61 5e       	subi	r22, 0xE1	; 225
 76e:	7f 4f       	sbci	r23, 0xFF	; 255
 770:	ce 01       	movw	r24, r28
 772:	0e 94 61 03 	call	0x6c2	; 0x6c2 <_ZN8SevenSeg12shiftInBytesEPh>
 776:	81 e0       	ldi	r24, 0x01	; 1
 778:	8a 87       	std	Y+10, r24	; 0x0a
 77a:	df 91       	pop	r29
 77c:	cf 91       	pop	r28
 77e:	08 95       	ret

00000780 <_ZN8SevenSegD1Ev>:

// default destructor
SevenSeg::~SevenSeg()
 780:	0e 94 73 02 	call	0x4e6	; 0x4e6 <_ZN18ShiftRegister_SIPOD1Ev>
 784:	08 95       	ret

00000786 <_ZN11TaskManagerC1EP5Timer>:


#include "TaskManager.h"

// default constructor
TaskManager::TaskManager( Timer * timerPtr )
 786:	fc 01       	movw	r30, r24
{
	
	timer = timerPtr;
 788:	70 8b       	std	Z+16, r23	; 0x10
 78a:	67 87       	std	Z+15, r22	; 0x0f
	
	//At initialization there should be zero loaded tasks. 
	loadedTasks = 0;
 78c:	11 8a       	std	Z+17, r1	; 0x11
	
	//Should be initialized to a prime number
	randNum = RANDOM_GEN_SEED;
 78e:	87 e0       	ldi	r24, 0x07	; 7
 790:	82 8b       	std	Z+18, r24	; 0x12
 792:	08 95       	ret

00000794 <_ZN11TaskManager7addTaskEPFvvEh>:

//Add a task to the task list.
//Priority; Range between 0-250. Closer to 0, the more likely task will run. 0 is realtime
void TaskManager::addTask( void (*task) (void), uint8_t priority ){
	
	tasks[ loadedTasks ] = task;
 794:	fc 01       	movw	r30, r24
 796:	21 89       	ldd	r18, Z+17	; 0x11
 798:	e2 2f       	mov	r30, r18
 79a:	f0 e0       	ldi	r31, 0x00	; 0
 79c:	df 01       	movw	r26, r30
 79e:	aa 0f       	add	r26, r26
 7a0:	bb 1f       	adc	r27, r27
 7a2:	a8 0f       	add	r26, r24
 7a4:	b9 1f       	adc	r27, r25
 7a6:	16 96       	adiw	r26, 0x06	; 6
 7a8:	7c 93       	st	X, r23
 7aa:	6e 93       	st	-X, r22
 7ac:	15 97       	sbiw	r26, 0x05	; 5
	
	taskPriority[ loadedTasks ] = priority;
 7ae:	e8 0f       	add	r30, r24
 7b0:	f9 1f       	adc	r31, r25
 7b2:	40 83       	st	Z, r20
	
	loadedTasks++;
 7b4:	2f 5f       	subi	r18, 0xFF	; 255
 7b6:	fc 01       	movw	r30, r24
 7b8:	21 8b       	std	Z+17, r18	; 0x11
 7ba:	08 95       	ret

000007bc <_ZN11TaskManager20generateRandomNumberEv>:
	}
	
}

void TaskManager::generateRandomNumber( void )
{
 7bc:	fc 01       	movw	r30, r24
	randNum = (randNum*109+89)%251;
 7be:	22 89       	ldd	r18, Z+18	; 0x12
 7c0:	8d e6       	ldi	r24, 0x6D	; 109
 7c2:	28 9f       	mul	r18, r24
 7c4:	90 01       	movw	r18, r0
 7c6:	11 24       	eor	r1, r1
 7c8:	c9 01       	movw	r24, r18
 7ca:	87 5a       	subi	r24, 0xA7	; 167
 7cc:	9f 4f       	sbci	r25, 0xFF	; 255
 7ce:	6b ef       	ldi	r22, 0xFB	; 251
 7d0:	70 e0       	ldi	r23, 0x00	; 0
 7d2:	0e 94 b2 04 	call	0x964	; 0x964 <__divmodhi4>
 7d6:	82 8b       	std	Z+18, r24	; 0x12
 7d8:	08 95       	ret

000007da <_ZN11TaskManager8runTasksEv>:
	
	loadedTasks++;
}

void TaskManager::runTasks( void )
{
 7da:	cf 92       	push	r12
 7dc:	df 92       	push	r13
 7de:	ef 92       	push	r14
 7e0:	ff 92       	push	r15
 7e2:	0f 93       	push	r16
 7e4:	1f 93       	push	r17
 7e6:	cf 93       	push	r28
 7e8:	df 93       	push	r29
	for( int i=0; i < loadedTasks ; i++){
 7ea:	dc 01       	movw	r26, r24
 7ec:	51 96       	adiw	r26, 0x11	; 17
 7ee:	2c 91       	ld	r18, X
 7f0:	22 23       	and	r18, r18
 7f2:	f1 f0       	breq	.+60     	; 0x830 <_ZN11TaskManager8runTasksEv+0x56>
 7f4:	ec 01       	movw	r28, r24
 7f6:	6c 01       	movw	r12, r24
 7f8:	7c 01       	movw	r14, r24
 7fa:	00 e0       	ldi	r16, 0x00	; 0
 7fc:	10 e0       	ldi	r17, 0x00	; 0
		
		//Generate random number for seeing if task should run
		this->generateRandomNumber();
 7fe:	ce 01       	movw	r24, r28
 800:	0e 94 de 03 	call	0x7bc	; 0x7bc <_ZN11TaskManager20generateRandomNumberEv>
		if( taskPriority[i] <= randNum ){
 804:	f6 01       	movw	r30, r12
 806:	91 91       	ld	r25, Z+
 808:	6f 01       	movw	r12, r30
 80a:	8a 89       	ldd	r24, Y+18	; 0x12
 80c:	89 17       	cp	r24, r25
 80e:	30 f0       	brcs	.+12     	; 0x81c <_ZN11TaskManager8runTasksEv+0x42>
			
			//Run the task
			(*tasks[i]) (); 
 810:	d7 01       	movw	r26, r14
 812:	15 96       	adiw	r26, 0x05	; 5
 814:	ed 91       	ld	r30, X+
 816:	fc 91       	ld	r31, X
 818:	16 97       	sbiw	r26, 0x06	; 6
 81a:	09 95       	icall
	loadedTasks++;
}

void TaskManager::runTasks( void )
{
	for( int i=0; i < loadedTasks ; i++){
 81c:	0f 5f       	subi	r16, 0xFF	; 255
 81e:	1f 4f       	sbci	r17, 0xFF	; 255
 820:	b2 e0       	ldi	r27, 0x02	; 2
 822:	eb 0e       	add	r14, r27
 824:	f1 1c       	adc	r15, r1
 826:	89 89       	ldd	r24, Y+17	; 0x11
 828:	90 e0       	ldi	r25, 0x00	; 0
 82a:	08 17       	cp	r16, r24
 82c:	19 07       	cpc	r17, r25
 82e:	3c f3       	brlt	.-50     	; 0x7fe <_ZN11TaskManager8runTasksEv+0x24>
			(*tasks[i]) (); 
		}
		
	}
	
}
 830:	df 91       	pop	r29
 832:	cf 91       	pop	r28
 834:	1f 91       	pop	r17
 836:	0f 91       	pop	r16
 838:	ff 90       	pop	r15
 83a:	ef 90       	pop	r14
 83c:	df 90       	pop	r13
 83e:	cf 90       	pop	r12
 840:	08 95       	ret

00000842 <_ZN7TriggerC1Ev>:

// default constructor
Trigger::Trigger()
{
	//Initialize the output pin.
	DDRD |= (1 << PORTD2);
 842:	52 9a       	sbi	0x0a, 2	; 10
	
	//Used for marking a point in time.
	timeStamp = 0;
 844:	fc 01       	movw	r30, r24
 846:	13 82       	std	Z+3, r1	; 0x03
 848:	14 82       	std	Z+4, r1	; 0x04
 84a:	15 82       	std	Z+5, r1	; 0x05
 84c:	16 82       	std	Z+6, r1	; 0x06
 84e:	08 95       	ret

00000850 <_ZN7Trigger11getTimerRefEP5Timer>:

} //Trigger

void Trigger::getTimerRef( Timer * timerPtr )
{
 850:	cf 93       	push	r28
 852:	df 93       	push	r29
 854:	ec 01       	movw	r28, r24
 856:	cb 01       	movw	r24, r22
	timer = timerPtr;
 858:	7a 83       	std	Y+2, r23	; 0x02
 85a:	69 83       	std	Y+1, r22	; 0x01
	
	//Initialize the time stamp
	//Timer->millis returns the number of 0.1ms since epoche
	timeStamp = timer->millis();
 85c:	0e 94 a2 04 	call	0x944	; 0x944 <_ZN5Timer6millisEv>
 860:	6b 83       	std	Y+3, r22	; 0x03
 862:	7c 83       	std	Y+4, r23	; 0x04
 864:	8d 83       	std	Y+5, r24	; 0x05
 866:	9e 83       	std	Y+6, r25	; 0x06
}
 868:	df 91       	pop	r29
 86a:	cf 91       	pop	r28
 86c:	08 95       	ret

0000086e <_ZN7Trigger9conditionEv>:
	}
}

//Sets the condition to run the run() method.
//Ends up creating a pulse with a pulse width of 1ms. period of 1s.
uint8_t Trigger::condition(void){
 86e:	fc 01       	movw	r30, r24
	
	if ( triggerLow == true ){
 870:	80 81       	ld	r24, Z
 872:	81 30       	cpi	r24, 0x01	; 1
 874:	81 f4       	brne	.+32     	; 0x896 <_ZN7Trigger9conditionEv+0x28>
		if ( timer->elapsed_millis(timeStamp) > TRIGGER_HIGH ){
 876:	43 81       	ldd	r20, Z+3	; 0x03
 878:	54 81       	ldd	r21, Z+4	; 0x04
 87a:	65 81       	ldd	r22, Z+5	; 0x05
 87c:	76 81       	ldd	r23, Z+6	; 0x06
 87e:	81 81       	ldd	r24, Z+1	; 0x01
 880:	92 81       	ldd	r25, Z+2	; 0x02
 882:	0e 94 90 04 	call	0x920	; 0x920 <_ZN5Timer14elapsed_millisEm>
 886:	21 e0       	ldi	r18, 0x01	; 1
 888:	6b 30       	cpi	r22, 0x0B	; 11
 88a:	71 05       	cpc	r23, r1
 88c:	81 05       	cpc	r24, r1
 88e:	91 05       	cpc	r25, r1
 890:	88 f4       	brcc	.+34     	; 0x8b4 <_ZN7Trigger9conditionEv+0x46>
 892:	20 e0       	ldi	r18, 0x00	; 0
 894:	0f c0       	rjmp	.+30     	; 0x8b4 <_ZN7Trigger9conditionEv+0x46>
		}
		else{
			return false;
		}
	} else{
		if ( timer->elapsed_millis(timeStamp) > TRIGGER_LOW ){
 896:	43 81       	ldd	r20, Z+3	; 0x03
 898:	54 81       	ldd	r21, Z+4	; 0x04
 89a:	65 81       	ldd	r22, Z+5	; 0x05
 89c:	76 81       	ldd	r23, Z+6	; 0x06
 89e:	81 81       	ldd	r24, Z+1	; 0x01
 8a0:	92 81       	ldd	r25, Z+2	; 0x02
 8a2:	0e 94 90 04 	call	0x920	; 0x920 <_ZN5Timer14elapsed_millisEm>
 8a6:	21 e0       	ldi	r18, 0x01	; 1
 8a8:	61 31       	cpi	r22, 0x11	; 17
 8aa:	77 42       	sbci	r23, 0x27	; 39
 8ac:	81 05       	cpc	r24, r1
 8ae:	91 05       	cpc	r25, r1
 8b0:	08 f4       	brcc	.+2      	; 0x8b4 <_ZN7Trigger9conditionEv+0x46>
 8b2:	20 e0       	ldi	r18, 0x00	; 0
			return true;
		} else {
			return false;
		}
	}
}
 8b4:	82 2f       	mov	r24, r18
 8b6:	08 95       	ret

000008b8 <_ZN7Trigger3runEv>:
	//Timer->millis returns the number of 0.1ms since epoche
	timeStamp = timer->millis();
}

//Runs the trigger task.
void Trigger::run(){
 8b8:	cf 93       	push	r28
 8ba:	df 93       	push	r29
 8bc:	ec 01       	movw	r28, r24
	
	if( this->condition() == true ){
 8be:	0e 94 37 04 	call	0x86e	; 0x86e <_ZN7Trigger9conditionEv>
 8c2:	81 30       	cpi	r24, 0x01	; 1
 8c4:	89 f4       	brne	.+34     	; 0x8e8 <_ZN7Trigger3runEv+0x30>
		
		//update time stamp since last run
		timeStamp = timer->millis();
 8c6:	89 81       	ldd	r24, Y+1	; 0x01
 8c8:	9a 81       	ldd	r25, Y+2	; 0x02
 8ca:	0e 94 a2 04 	call	0x944	; 0x944 <_ZN5Timer6millisEv>
 8ce:	6b 83       	std	Y+3, r22	; 0x03
 8d0:	7c 83       	std	Y+4, r23	; 0x04
 8d2:	8d 83       	std	Y+5, r24	; 0x05
 8d4:	9e 83       	std	Y+6, r25	; 0x06
		
		if (triggerLow == true){
 8d6:	88 81       	ld	r24, Y
 8d8:	81 30       	cpi	r24, 0x01	; 1
 8da:	19 f4       	brne	.+6      	; 0x8e2 <_ZN7Trigger3runEv+0x2a>
			triggerLow = false;
 8dc:	18 82       	st	Y, r1
		
			//Set pin low.
			PORTD &= ~( 1 << PORTD2);
 8de:	5a 98       	cbi	0x0b, 2	; 11
 8e0:	03 c0       	rjmp	.+6      	; 0x8e8 <_ZN7Trigger3runEv+0x30>
		} else {
		
			triggerLow = true;	
 8e2:	81 e0       	ldi	r24, 0x01	; 1
 8e4:	88 83       	st	Y, r24
			//Set pin high
			PORTD |= ( 1 << PORTD2);
 8e6:	5a 9a       	sbi	0x0b, 2	; 11
		}
	}
}
 8e8:	df 91       	pop	r29
 8ea:	cf 91       	pop	r28
 8ec:	08 95       	ret

000008ee <_ZN7TriggerD1Ev>:
		}
	}
}

// default destructor
Trigger::~Trigger()
 8ee:	08 95       	ret

000008f0 <_ZN5TimerC1Ev>:
	fixedTime = this->millis();
}

void Timer::resumeTimer( void )
{
	step = fixedTime;
 8f0:	fc 01       	movw	r30, r24
 8f2:	10 82       	st	Z, r1
 8f4:	11 82       	std	Z+1, r1	; 0x01
 8f6:	12 82       	std	Z+2, r1	; 0x02
 8f8:	13 82       	std	Z+3, r1	; 0x03
 8fa:	14 82       	std	Z+4, r1	; 0x04
 8fc:	15 82       	std	Z+5, r1	; 0x05
 8fe:	16 82       	std	Z+6, r1	; 0x06
 900:	17 82       	std	Z+7, r1	; 0x07
 902:	08 95       	ret

00000904 <_ZN5Timer14incrementTimerEv>:
 904:	fc 01       	movw	r30, r24
 906:	40 81       	ld	r20, Z
 908:	51 81       	ldd	r21, Z+1	; 0x01
 90a:	62 81       	ldd	r22, Z+2	; 0x02
 90c:	73 81       	ldd	r23, Z+3	; 0x03
 90e:	4f 5f       	subi	r20, 0xFF	; 255
 910:	5f 4f       	sbci	r21, 0xFF	; 255
 912:	6f 4f       	sbci	r22, 0xFF	; 255
 914:	7f 4f       	sbci	r23, 0xFF	; 255
 916:	40 83       	st	Z, r20
 918:	51 83       	std	Z+1, r21	; 0x01
 91a:	62 83       	std	Z+2, r22	; 0x02
 91c:	73 83       	std	Z+3, r23	; 0x03
 91e:	08 95       	ret

00000920 <_ZN5Timer14elapsed_millisEm>:
}

uint32_t Timer::elapsed_millis( uint32_t comparison )
{	
 920:	0f 93       	push	r16
 922:	1f 93       	push	r17
	return (step - comparison);	
 924:	fc 01       	movw	r30, r24
 926:	80 81       	ld	r24, Z
 928:	91 81       	ldd	r25, Z+1	; 0x01
 92a:	a2 81       	ldd	r26, Z+2	; 0x02
 92c:	b3 81       	ldd	r27, Z+3	; 0x03
 92e:	8c 01       	movw	r16, r24
 930:	9d 01       	movw	r18, r26
 932:	04 1b       	sub	r16, r20
 934:	15 0b       	sbc	r17, r21
 936:	26 0b       	sbc	r18, r22
 938:	37 0b       	sbc	r19, r23
 93a:	c9 01       	movw	r24, r18
 93c:	b8 01       	movw	r22, r16
}
 93e:	1f 91       	pop	r17
 940:	0f 91       	pop	r16
 942:	08 95       	ret

00000944 <_ZN5Timer6millisEv>:

uint32_t Timer::millis( void )
{
	return step;
 944:	fc 01       	movw	r30, r24
 946:	60 81       	ld	r22, Z
 948:	71 81       	ldd	r23, Z+1	; 0x01
 94a:	82 81       	ldd	r24, Z+2	; 0x02
 94c:	93 81       	ldd	r25, Z+3	; 0x03
}
 94e:	08 95       	ret

00000950 <_ZN5Timer8wait_1usEv>:
	//Variable to find the difference between a current value
	//of a timer and a previous value
	uint8_t difference = 0;
		
	//Read the value of the TCNT0 timer0
	uint8_t timerValue = TCNT2;
 950:	90 91 b2 00 	lds	r25, 0x00B2	; 0x8000b2 <__TEXT_REGION_LENGTH__+0x7e00b2>
		
	//Wait until difference is 16 == 1us
	while( difference < 16 ){
		difference = TCNT2 - timerValue;
 954:	e2 eb       	ldi	r30, 0xB2	; 178
 956:	f0 e0       	ldi	r31, 0x00	; 0
 958:	80 81       	ld	r24, Z
 95a:	89 1b       	sub	r24, r25
		
	//Read the value of the TCNT0 timer0
	uint8_t timerValue = TCNT2;
		
	//Wait until difference is 16 == 1us
	while( difference < 16 ){
 95c:	80 31       	cpi	r24, 0x10	; 16
 95e:	e0 f3       	brcs	.-8      	; 0x958 <_ZN5Timer8wait_1usEv+0x8>
		difference = TCNT2 - timerValue;
	}
}
 960:	08 95       	ret

00000962 <_ZN5TimerD1Ev>:

// default destructor
Timer::~Timer()
 962:	08 95       	ret

00000964 <__divmodhi4>:
 964:	97 fb       	bst	r25, 7
 966:	07 2e       	mov	r0, r23
 968:	16 f4       	brtc	.+4      	; 0x96e <__divmodhi4+0xa>
 96a:	00 94       	com	r0
 96c:	07 d0       	rcall	.+14     	; 0x97c <__divmodhi4_neg1>
 96e:	77 fd       	sbrc	r23, 7
 970:	09 d0       	rcall	.+18     	; 0x984 <__divmodhi4_neg2>
 972:	0e 94 c6 04 	call	0x98c	; 0x98c <__udivmodhi4>
 976:	07 fc       	sbrc	r0, 7
 978:	05 d0       	rcall	.+10     	; 0x984 <__divmodhi4_neg2>
 97a:	3e f4       	brtc	.+14     	; 0x98a <__divmodhi4_exit>

0000097c <__divmodhi4_neg1>:
 97c:	90 95       	com	r25
 97e:	81 95       	neg	r24
 980:	9f 4f       	sbci	r25, 0xFF	; 255
 982:	08 95       	ret

00000984 <__divmodhi4_neg2>:
 984:	70 95       	com	r23
 986:	61 95       	neg	r22
 988:	7f 4f       	sbci	r23, 0xFF	; 255

0000098a <__divmodhi4_exit>:
 98a:	08 95       	ret

0000098c <__udivmodhi4>:
 98c:	aa 1b       	sub	r26, r26
 98e:	bb 1b       	sub	r27, r27
 990:	51 e1       	ldi	r21, 0x11	; 17
 992:	07 c0       	rjmp	.+14     	; 0x9a2 <__udivmodhi4_ep>

00000994 <__udivmodhi4_loop>:
 994:	aa 1f       	adc	r26, r26
 996:	bb 1f       	adc	r27, r27
 998:	a6 17       	cp	r26, r22
 99a:	b7 07       	cpc	r27, r23
 99c:	10 f0       	brcs	.+4      	; 0x9a2 <__udivmodhi4_ep>
 99e:	a6 1b       	sub	r26, r22
 9a0:	b7 0b       	sbc	r27, r23

000009a2 <__udivmodhi4_ep>:
 9a2:	88 1f       	adc	r24, r24
 9a4:	99 1f       	adc	r25, r25
 9a6:	5a 95       	dec	r21
 9a8:	a9 f7       	brne	.-22     	; 0x994 <__udivmodhi4_loop>
 9aa:	80 95       	com	r24
 9ac:	90 95       	com	r25
 9ae:	bc 01       	movw	r22, r24
 9b0:	cd 01       	movw	r24, r26
 9b2:	08 95       	ret

000009b4 <__tablejump2__>:
 9b4:	ee 0f       	add	r30, r30
 9b6:	ff 1f       	adc	r31, r31
 9b8:	05 90       	lpm	r0, Z+
 9ba:	f4 91       	lpm	r31, Z
 9bc:	e0 2d       	mov	r30, r0
 9be:	09 94       	ijmp

000009c0 <malloc>:
 9c0:	cf 93       	push	r28
 9c2:	df 93       	push	r29
 9c4:	82 30       	cpi	r24, 0x02	; 2
 9c6:	91 05       	cpc	r25, r1
 9c8:	10 f4       	brcc	.+4      	; 0x9ce <malloc+0xe>
 9ca:	82 e0       	ldi	r24, 0x02	; 2
 9cc:	90 e0       	ldi	r25, 0x00	; 0
 9ce:	e0 91 56 01 	lds	r30, 0x0156	; 0x800156 <__flp>
 9d2:	f0 91 57 01 	lds	r31, 0x0157	; 0x800157 <__flp+0x1>
 9d6:	20 e0       	ldi	r18, 0x00	; 0
 9d8:	30 e0       	ldi	r19, 0x00	; 0
 9da:	c0 e0       	ldi	r28, 0x00	; 0
 9dc:	d0 e0       	ldi	r29, 0x00	; 0
 9de:	30 97       	sbiw	r30, 0x00	; 0
 9e0:	11 f1       	breq	.+68     	; 0xa26 <malloc+0x66>
 9e2:	40 81       	ld	r20, Z
 9e4:	51 81       	ldd	r21, Z+1	; 0x01
 9e6:	48 17       	cp	r20, r24
 9e8:	59 07       	cpc	r21, r25
 9ea:	c0 f0       	brcs	.+48     	; 0xa1c <malloc+0x5c>
 9ec:	48 17       	cp	r20, r24
 9ee:	59 07       	cpc	r21, r25
 9f0:	61 f4       	brne	.+24     	; 0xa0a <malloc+0x4a>
 9f2:	82 81       	ldd	r24, Z+2	; 0x02
 9f4:	93 81       	ldd	r25, Z+3	; 0x03
 9f6:	20 97       	sbiw	r28, 0x00	; 0
 9f8:	19 f0       	breq	.+6      	; 0xa00 <malloc+0x40>
 9fa:	9b 83       	std	Y+3, r25	; 0x03
 9fc:	8a 83       	std	Y+2, r24	; 0x02
 9fe:	2b c0       	rjmp	.+86     	; 0xa56 <malloc+0x96>
 a00:	90 93 57 01 	sts	0x0157, r25	; 0x800157 <__flp+0x1>
 a04:	80 93 56 01 	sts	0x0156, r24	; 0x800156 <__flp>
 a08:	26 c0       	rjmp	.+76     	; 0xa56 <malloc+0x96>
 a0a:	21 15       	cp	r18, r1
 a0c:	31 05       	cpc	r19, r1
 a0e:	19 f0       	breq	.+6      	; 0xa16 <malloc+0x56>
 a10:	42 17       	cp	r20, r18
 a12:	53 07       	cpc	r21, r19
 a14:	18 f4       	brcc	.+6      	; 0xa1c <malloc+0x5c>
 a16:	9a 01       	movw	r18, r20
 a18:	be 01       	movw	r22, r28
 a1a:	df 01       	movw	r26, r30
 a1c:	ef 01       	movw	r28, r30
 a1e:	02 80       	ldd	r0, Z+2	; 0x02
 a20:	f3 81       	ldd	r31, Z+3	; 0x03
 a22:	e0 2d       	mov	r30, r0
 a24:	dc cf       	rjmp	.-72     	; 0x9de <malloc+0x1e>
 a26:	21 15       	cp	r18, r1
 a28:	31 05       	cpc	r19, r1
 a2a:	09 f1       	breq	.+66     	; 0xa6e <malloc+0xae>
 a2c:	28 1b       	sub	r18, r24
 a2e:	39 0b       	sbc	r19, r25
 a30:	24 30       	cpi	r18, 0x04	; 4
 a32:	31 05       	cpc	r19, r1
 a34:	90 f4       	brcc	.+36     	; 0xa5a <malloc+0x9a>
 a36:	12 96       	adiw	r26, 0x02	; 2
 a38:	8d 91       	ld	r24, X+
 a3a:	9c 91       	ld	r25, X
 a3c:	13 97       	sbiw	r26, 0x03	; 3
 a3e:	61 15       	cp	r22, r1
 a40:	71 05       	cpc	r23, r1
 a42:	21 f0       	breq	.+8      	; 0xa4c <malloc+0x8c>
 a44:	fb 01       	movw	r30, r22
 a46:	93 83       	std	Z+3, r25	; 0x03
 a48:	82 83       	std	Z+2, r24	; 0x02
 a4a:	04 c0       	rjmp	.+8      	; 0xa54 <malloc+0x94>
 a4c:	90 93 57 01 	sts	0x0157, r25	; 0x800157 <__flp+0x1>
 a50:	80 93 56 01 	sts	0x0156, r24	; 0x800156 <__flp>
 a54:	fd 01       	movw	r30, r26
 a56:	32 96       	adiw	r30, 0x02	; 2
 a58:	44 c0       	rjmp	.+136    	; 0xae2 <malloc+0x122>
 a5a:	fd 01       	movw	r30, r26
 a5c:	e2 0f       	add	r30, r18
 a5e:	f3 1f       	adc	r31, r19
 a60:	81 93       	st	Z+, r24
 a62:	91 93       	st	Z+, r25
 a64:	22 50       	subi	r18, 0x02	; 2
 a66:	31 09       	sbc	r19, r1
 a68:	2d 93       	st	X+, r18
 a6a:	3c 93       	st	X, r19
 a6c:	3a c0       	rjmp	.+116    	; 0xae2 <malloc+0x122>
 a6e:	20 91 54 01 	lds	r18, 0x0154	; 0x800154 <__brkval>
 a72:	30 91 55 01 	lds	r19, 0x0155	; 0x800155 <__brkval+0x1>
 a76:	23 2b       	or	r18, r19
 a78:	41 f4       	brne	.+16     	; 0xa8a <malloc+0xca>
 a7a:	20 91 02 01 	lds	r18, 0x0102	; 0x800102 <__malloc_heap_start>
 a7e:	30 91 03 01 	lds	r19, 0x0103	; 0x800103 <__malloc_heap_start+0x1>
 a82:	30 93 55 01 	sts	0x0155, r19	; 0x800155 <__brkval+0x1>
 a86:	20 93 54 01 	sts	0x0154, r18	; 0x800154 <__brkval>
 a8a:	20 91 00 01 	lds	r18, 0x0100	; 0x800100 <__data_start>
 a8e:	30 91 01 01 	lds	r19, 0x0101	; 0x800101 <__data_start+0x1>
 a92:	21 15       	cp	r18, r1
 a94:	31 05       	cpc	r19, r1
 a96:	41 f4       	brne	.+16     	; 0xaa8 <malloc+0xe8>
 a98:	2d b7       	in	r18, 0x3d	; 61
 a9a:	3e b7       	in	r19, 0x3e	; 62
 a9c:	40 91 04 01 	lds	r20, 0x0104	; 0x800104 <__malloc_margin>
 aa0:	50 91 05 01 	lds	r21, 0x0105	; 0x800105 <__malloc_margin+0x1>
 aa4:	24 1b       	sub	r18, r20
 aa6:	35 0b       	sbc	r19, r21
 aa8:	e0 91 54 01 	lds	r30, 0x0154	; 0x800154 <__brkval>
 aac:	f0 91 55 01 	lds	r31, 0x0155	; 0x800155 <__brkval+0x1>
 ab0:	e2 17       	cp	r30, r18
 ab2:	f3 07       	cpc	r31, r19
 ab4:	a0 f4       	brcc	.+40     	; 0xade <malloc+0x11e>
 ab6:	2e 1b       	sub	r18, r30
 ab8:	3f 0b       	sbc	r19, r31
 aba:	28 17       	cp	r18, r24
 abc:	39 07       	cpc	r19, r25
 abe:	78 f0       	brcs	.+30     	; 0xade <malloc+0x11e>
 ac0:	ac 01       	movw	r20, r24
 ac2:	4e 5f       	subi	r20, 0xFE	; 254
 ac4:	5f 4f       	sbci	r21, 0xFF	; 255
 ac6:	24 17       	cp	r18, r20
 ac8:	35 07       	cpc	r19, r21
 aca:	48 f0       	brcs	.+18     	; 0xade <malloc+0x11e>
 acc:	4e 0f       	add	r20, r30
 ace:	5f 1f       	adc	r21, r31
 ad0:	50 93 55 01 	sts	0x0155, r21	; 0x800155 <__brkval+0x1>
 ad4:	40 93 54 01 	sts	0x0154, r20	; 0x800154 <__brkval>
 ad8:	81 93       	st	Z+, r24
 ada:	91 93       	st	Z+, r25
 adc:	02 c0       	rjmp	.+4      	; 0xae2 <malloc+0x122>
 ade:	e0 e0       	ldi	r30, 0x00	; 0
 ae0:	f0 e0       	ldi	r31, 0x00	; 0
 ae2:	cf 01       	movw	r24, r30
 ae4:	df 91       	pop	r29
 ae6:	cf 91       	pop	r28
 ae8:	08 95       	ret

00000aea <free>:
 aea:	0f 93       	push	r16
 aec:	1f 93       	push	r17
 aee:	cf 93       	push	r28
 af0:	df 93       	push	r29
 af2:	00 97       	sbiw	r24, 0x00	; 0
 af4:	09 f4       	brne	.+2      	; 0xaf8 <free+0xe>
 af6:	8c c0       	rjmp	.+280    	; 0xc10 <free+0x126>
 af8:	fc 01       	movw	r30, r24
 afa:	32 97       	sbiw	r30, 0x02	; 2
 afc:	13 82       	std	Z+3, r1	; 0x03
 afe:	12 82       	std	Z+2, r1	; 0x02
 b00:	00 91 56 01 	lds	r16, 0x0156	; 0x800156 <__flp>
 b04:	10 91 57 01 	lds	r17, 0x0157	; 0x800157 <__flp+0x1>
 b08:	01 15       	cp	r16, r1
 b0a:	11 05       	cpc	r17, r1
 b0c:	81 f4       	brne	.+32     	; 0xb2e <free+0x44>
 b0e:	20 81       	ld	r18, Z
 b10:	31 81       	ldd	r19, Z+1	; 0x01
 b12:	82 0f       	add	r24, r18
 b14:	93 1f       	adc	r25, r19
 b16:	20 91 54 01 	lds	r18, 0x0154	; 0x800154 <__brkval>
 b1a:	30 91 55 01 	lds	r19, 0x0155	; 0x800155 <__brkval+0x1>
 b1e:	28 17       	cp	r18, r24
 b20:	39 07       	cpc	r19, r25
 b22:	79 f5       	brne	.+94     	; 0xb82 <free+0x98>
 b24:	f0 93 55 01 	sts	0x0155, r31	; 0x800155 <__brkval+0x1>
 b28:	e0 93 54 01 	sts	0x0154, r30	; 0x800154 <__brkval>
 b2c:	71 c0       	rjmp	.+226    	; 0xc10 <free+0x126>
 b2e:	d8 01       	movw	r26, r16
 b30:	40 e0       	ldi	r20, 0x00	; 0
 b32:	50 e0       	ldi	r21, 0x00	; 0
 b34:	ae 17       	cp	r26, r30
 b36:	bf 07       	cpc	r27, r31
 b38:	50 f4       	brcc	.+20     	; 0xb4e <free+0x64>
 b3a:	12 96       	adiw	r26, 0x02	; 2
 b3c:	2d 91       	ld	r18, X+
 b3e:	3c 91       	ld	r19, X
 b40:	13 97       	sbiw	r26, 0x03	; 3
 b42:	ad 01       	movw	r20, r26
 b44:	21 15       	cp	r18, r1
 b46:	31 05       	cpc	r19, r1
 b48:	09 f1       	breq	.+66     	; 0xb8c <free+0xa2>
 b4a:	d9 01       	movw	r26, r18
 b4c:	f3 cf       	rjmp	.-26     	; 0xb34 <free+0x4a>
 b4e:	9d 01       	movw	r18, r26
 b50:	da 01       	movw	r26, r20
 b52:	33 83       	std	Z+3, r19	; 0x03
 b54:	22 83       	std	Z+2, r18	; 0x02
 b56:	60 81       	ld	r22, Z
 b58:	71 81       	ldd	r23, Z+1	; 0x01
 b5a:	86 0f       	add	r24, r22
 b5c:	97 1f       	adc	r25, r23
 b5e:	82 17       	cp	r24, r18
 b60:	93 07       	cpc	r25, r19
 b62:	69 f4       	brne	.+26     	; 0xb7e <free+0x94>
 b64:	ec 01       	movw	r28, r24
 b66:	28 81       	ld	r18, Y
 b68:	39 81       	ldd	r19, Y+1	; 0x01
 b6a:	26 0f       	add	r18, r22
 b6c:	37 1f       	adc	r19, r23
 b6e:	2e 5f       	subi	r18, 0xFE	; 254
 b70:	3f 4f       	sbci	r19, 0xFF	; 255
 b72:	31 83       	std	Z+1, r19	; 0x01
 b74:	20 83       	st	Z, r18
 b76:	8a 81       	ldd	r24, Y+2	; 0x02
 b78:	9b 81       	ldd	r25, Y+3	; 0x03
 b7a:	93 83       	std	Z+3, r25	; 0x03
 b7c:	82 83       	std	Z+2, r24	; 0x02
 b7e:	45 2b       	or	r20, r21
 b80:	29 f4       	brne	.+10     	; 0xb8c <free+0xa2>
 b82:	f0 93 57 01 	sts	0x0157, r31	; 0x800157 <__flp+0x1>
 b86:	e0 93 56 01 	sts	0x0156, r30	; 0x800156 <__flp>
 b8a:	42 c0       	rjmp	.+132    	; 0xc10 <free+0x126>
 b8c:	13 96       	adiw	r26, 0x03	; 3
 b8e:	fc 93       	st	X, r31
 b90:	ee 93       	st	-X, r30
 b92:	12 97       	sbiw	r26, 0x02	; 2
 b94:	ed 01       	movw	r28, r26
 b96:	49 91       	ld	r20, Y+
 b98:	59 91       	ld	r21, Y+
 b9a:	9e 01       	movw	r18, r28
 b9c:	24 0f       	add	r18, r20
 b9e:	35 1f       	adc	r19, r21
 ba0:	e2 17       	cp	r30, r18
 ba2:	f3 07       	cpc	r31, r19
 ba4:	71 f4       	brne	.+28     	; 0xbc2 <free+0xd8>
 ba6:	80 81       	ld	r24, Z
 ba8:	91 81       	ldd	r25, Z+1	; 0x01
 baa:	84 0f       	add	r24, r20
 bac:	95 1f       	adc	r25, r21
 bae:	02 96       	adiw	r24, 0x02	; 2
 bb0:	11 96       	adiw	r26, 0x01	; 1
 bb2:	9c 93       	st	X, r25
 bb4:	8e 93       	st	-X, r24
 bb6:	82 81       	ldd	r24, Z+2	; 0x02
 bb8:	93 81       	ldd	r25, Z+3	; 0x03
 bba:	13 96       	adiw	r26, 0x03	; 3
 bbc:	9c 93       	st	X, r25
 bbe:	8e 93       	st	-X, r24
 bc0:	12 97       	sbiw	r26, 0x02	; 2
 bc2:	e0 e0       	ldi	r30, 0x00	; 0
 bc4:	f0 e0       	ldi	r31, 0x00	; 0
 bc6:	d8 01       	movw	r26, r16
 bc8:	12 96       	adiw	r26, 0x02	; 2
 bca:	8d 91       	ld	r24, X+
 bcc:	9c 91       	ld	r25, X
 bce:	13 97       	sbiw	r26, 0x03	; 3
 bd0:	00 97       	sbiw	r24, 0x00	; 0
 bd2:	19 f0       	breq	.+6      	; 0xbda <free+0xf0>
 bd4:	f8 01       	movw	r30, r16
 bd6:	8c 01       	movw	r16, r24
 bd8:	f6 cf       	rjmp	.-20     	; 0xbc6 <free+0xdc>
 bda:	8d 91       	ld	r24, X+
 bdc:	9c 91       	ld	r25, X
 bde:	98 01       	movw	r18, r16
 be0:	2e 5f       	subi	r18, 0xFE	; 254
 be2:	3f 4f       	sbci	r19, 0xFF	; 255
 be4:	82 0f       	add	r24, r18
 be6:	93 1f       	adc	r25, r19
 be8:	20 91 54 01 	lds	r18, 0x0154	; 0x800154 <__brkval>
 bec:	30 91 55 01 	lds	r19, 0x0155	; 0x800155 <__brkval+0x1>
 bf0:	28 17       	cp	r18, r24
 bf2:	39 07       	cpc	r19, r25
 bf4:	69 f4       	brne	.+26     	; 0xc10 <free+0x126>
 bf6:	30 97       	sbiw	r30, 0x00	; 0
 bf8:	29 f4       	brne	.+10     	; 0xc04 <free+0x11a>
 bfa:	10 92 57 01 	sts	0x0157, r1	; 0x800157 <__flp+0x1>
 bfe:	10 92 56 01 	sts	0x0156, r1	; 0x800156 <__flp>
 c02:	02 c0       	rjmp	.+4      	; 0xc08 <free+0x11e>
 c04:	13 82       	std	Z+3, r1	; 0x03
 c06:	12 82       	std	Z+2, r1	; 0x02
 c08:	10 93 55 01 	sts	0x0155, r17	; 0x800155 <__brkval+0x1>
 c0c:	00 93 54 01 	sts	0x0154, r16	; 0x800154 <__brkval>
 c10:	df 91       	pop	r29
 c12:	cf 91       	pop	r28
 c14:	1f 91       	pop	r17
 c16:	0f 91       	pop	r16
 c18:	08 95       	ret

00000c1a <__do_global_dtors>:
 c1a:	10 e0       	ldi	r17, 0x00	; 0
 c1c:	c5 e3       	ldi	r28, 0x35	; 53
 c1e:	d0 e0       	ldi	r29, 0x00	; 0
 c20:	04 c0       	rjmp	.+8      	; 0xc2a <__do_global_dtors+0x10>
 c22:	fe 01       	movw	r30, r28
 c24:	0e 94 da 04 	call	0x9b4	; 0x9b4 <__tablejump2__>
 c28:	21 96       	adiw	r28, 0x01	; 1
 c2a:	c6 33       	cpi	r28, 0x36	; 54
 c2c:	d1 07       	cpc	r29, r17
 c2e:	c9 f7       	brne	.-14     	; 0xc22 <__do_global_dtors+0x8>
 c30:	f8 94       	cli

00000c32 <__stop_program>:
 c32:	ff cf       	rjmp	.-2      	; 0xc32 <__stop_program>
